ARM GAS  /tmp/ccDqKevX.s 			page 1


   1              		.cpu cortex-m3
   2              		.eabi_attribute 20, 1
   3              		.eabi_attribute 21, 1
   4              		.eabi_attribute 23, 3
   5              		.eabi_attribute 24, 1
   6              		.eabi_attribute 25, 1
   7              		.eabi_attribute 26, 1
   8              		.eabi_attribute 30, 1
   9              		.eabi_attribute 34, 1
  10              		.eabi_attribute 18, 4
  11              		.file	"main.c"
  12              		.text
  13              	.Ltext0:
  14              		.cfi_sections	.debug_frame
  15              		.global	__aeabi_ui2d
  16              		.global	__aeabi_dmul
  17              		.global	__aeabi_d2uiz
  18              		.section	.text.delay_us,"ax",%progbits
  19              		.align	1
  20              		.global	delay_us
  21              		.arch armv7-m
  22              		.syntax unified
  23              		.thumb
  24              		.thumb_func
  25              		.fpu softvfp
  27              	delay_us:
  28              	.LVL0:
  29              	.LFB66:
  30              		.file 1 "Inc/delay_own.h"
   1:Inc/delay_own.h **** #include "stm32f1xx_hal.h"
   2:Inc/delay_own.h **** 
   3:Inc/delay_own.h **** // Provisorisches µS Delay (Funktioniert bei 72Mhz ganz okay)
   4:Inc/delay_own.h **** void delay_us(uint32_t microseconds) {
  31              		.loc 1 4 38 view -0
  32              		.cfi_startproc
  33              		@ args = 0, pretend = 0, frame = 8
  34              		@ frame_needed = 0, uses_anonymous_args = 0
  35              		.loc 1 4 38 is_stmt 0 view .LVU1
  36 0000 00B5     		push	{lr}
  37              	.LCFI0:
  38              		.cfi_def_cfa_offset 4
  39              		.cfi_offset 14, -4
  40 0002 83B0     		sub	sp, sp, #12
  41              	.LCFI1:
  42              		.cfi_def_cfa_offset 16
   5:Inc/delay_own.h **** 
   6:Inc/delay_own.h ****   uint32_t cycles = 4.65 * microseconds;
  43              		.loc 1 6 3 is_stmt 1 view .LVU2
  44              		.loc 1 6 26 is_stmt 0 view .LVU3
  45 0004 FFF7FEFF 		bl	__aeabi_ui2d
  46              	.LVL1:
  47              		.loc 1 6 26 view .LVU4
  48 0008 09A3     		adr	r3, .L6
  49 000a D3E90023 		ldrd	r2, [r3]
  50 000e FFF7FEFF 		bl	__aeabi_dmul
  51              	.LVL2:
  52              		.loc 1 6 12 view .LVU5
ARM GAS  /tmp/ccDqKevX.s 			page 2


  53 0012 FFF7FEFF 		bl	__aeabi_d2uiz
  54              	.LVL3:
   7:Inc/delay_own.h ****   for (volatile int i = 0; i < cycles; i++) {}
  55              		.loc 1 7 3 is_stmt 1 view .LVU6
  56              	.LBB2:
  57              		.loc 1 7 8 view .LVU7
  58              		.loc 1 7 21 is_stmt 0 view .LVU8
  59 0016 0023     		movs	r3, #0
  60 0018 0193     		str	r3, [sp, #4]
  61              	.L2:
  62              		.loc 1 7 28 is_stmt 1 discriminator 1 view .LVU9
  63              		.loc 1 7 30 is_stmt 0 discriminator 1 view .LVU10
  64 001a 019B     		ldr	r3, [sp, #4]
  65              		.loc 1 7 3 discriminator 1 view .LVU11
  66 001c 8342     		cmp	r3, r0
  67 001e 03D2     		bcs	.L5
  68              		.loc 1 7 46 is_stmt 1 discriminator 3 view .LVU12
  69              		.loc 1 7 40 discriminator 3 view .LVU13
  70              		.loc 1 7 41 is_stmt 0 discriminator 3 view .LVU14
  71 0020 019B     		ldr	r3, [sp, #4]
  72 0022 0133     		adds	r3, r3, #1
  73 0024 0193     		str	r3, [sp, #4]
  74 0026 F8E7     		b	.L2
  75              	.L5:
  76              	.LBE2:
   8:Inc/delay_own.h **** }...
  77              		.loc 1 8 1 view .LVU15
  78 0028 03B0     		add	sp, sp, #12
  79              	.LCFI2:
  80              		.cfi_def_cfa_offset 4
  81              		@ sp needed
  82 002a 5DF804FB 		ldr	pc, [sp], #4
  83              	.L7:
  84 002e 00BF     		.align	3
  85              	.L6:
  86 0030 9A999999 		.word	2576980378
  87 0034 99991240 		.word	1074960793
  88              		.cfi_endproc
  89              	.LFE66:
  91              		.section	.text.ringbuffer_init,"ax",%progbits
  92              		.align	1
  93              		.global	ringbuffer_init
  94              		.syntax unified
  95              		.thumb
  96              		.thumb_func
  97              		.fpu softvfp
  99              	ringbuffer_init:
 100              	.LFB67:
 101              		.file 2 "Inc/ringbuffer.h"
   1:Inc/ringbuffer.h **** #include <stdint.h>
   2:Inc/ringbuffer.h **** 
   3:Inc/ringbuffer.h **** 
   4:Inc/ringbuffer.h **** #define _RINGBUFFER_SIZE 2048
   5:Inc/ringbuffer.h **** unsigned char _RINGBUFFER[_RINGBUFFER_SIZE];
   6:Inc/ringbuffer.h **** uint32_t _ringbuffer_pos_write = 0;
   7:Inc/ringbuffer.h **** uint32_t _ringbuffer_pos_read = 0;
   8:Inc/ringbuffer.h **** 
ARM GAS  /tmp/ccDqKevX.s 			page 3


   9:Inc/ringbuffer.h **** 
  10:Inc/ringbuffer.h **** // init/clear ringbuffer
  11:Inc/ringbuffer.h **** void ringbuffer_init() {
 102              		.loc 2 11 24 is_stmt 1 view -0
 103              		.cfi_startproc
 104              		@ args = 0, pretend = 0, frame = 0
 105              		@ frame_needed = 0, uses_anonymous_args = 0
 106              		@ link register save eliminated.
  12:Inc/ringbuffer.h ****     _ringbuffer_pos_write = 0;
 107              		.loc 2 12 5 view .LVU17
 108              		.loc 2 12 27 is_stmt 0 view .LVU18
 109 0000 0023     		movs	r3, #0
 110 0002 024A     		ldr	r2, .L9
 111 0004 1360     		str	r3, [r2]
  13:Inc/ringbuffer.h ****     _ringbuffer_pos_read = 0;
 112              		.loc 2 13 5 is_stmt 1 view .LVU19
 113              		.loc 2 13 26 is_stmt 0 view .LVU20
 114 0006 024A     		ldr	r2, .L9+4
 115 0008 1360     		str	r3, [r2]
  14:Inc/ringbuffer.h **** }
 116              		.loc 2 14 1 view .LVU21
 117 000a 7047     		bx	lr
 118              	.L10:
 119              		.align	2
 120              	.L9:
 121 000c 00000000 		.word	.LANCHOR0
 122 0010 00000000 		.word	.LANCHOR1
 123              		.cfi_endproc
 124              	.LFE67:
 126              		.section	.text.ringbuffer_pushback,"ax",%progbits
 127              		.align	1
 128              		.global	ringbuffer_pushback
 129              		.syntax unified
 130              		.thumb
 131              		.thumb_func
 132              		.fpu softvfp
 134              	ringbuffer_pushback:
 135              	.LVL4:
 136              	.LFB68:
  15:Inc/ringbuffer.h **** 
  16:Inc/ringbuffer.h **** 
  17:Inc/ringbuffer.h **** // fill ringbuffer with data
  18:Inc/ringbuffer.h **** void ringbuffer_pushback(unsigned char data) {
 137              		.loc 2 18 46 is_stmt 1 view -0
 138              		.cfi_startproc
 139              		@ args = 0, pretend = 0, frame = 0
 140              		@ frame_needed = 0, uses_anonymous_args = 0
 141              		@ link register save eliminated.
  19:Inc/ringbuffer.h ****     _RINGBUFFER[_ringbuffer_pos_write] = data;
 142              		.loc 2 19 5 view .LVU23
 143              		.loc 2 19 16 is_stmt 0 view .LVU24
 144 0000 064A     		ldr	r2, .L13
 145 0002 1368     		ldr	r3, [r2]
 146              		.loc 2 19 40 view .LVU25
 147 0004 0649     		ldr	r1, .L13+4
 148 0006 C854     		strb	r0, [r1, r3]
  20:Inc/ringbuffer.h ****     _ringbuffer_pos_write++;
ARM GAS  /tmp/ccDqKevX.s 			page 4


 149              		.loc 2 20 5 is_stmt 1 view .LVU26
 150              		.loc 2 20 26 is_stmt 0 view .LVU27
 151 0008 0133     		adds	r3, r3, #1
 152 000a 1360     		str	r3, [r2]
  21:Inc/ringbuffer.h ****     if (_ringbuffer_pos_write >= _RINGBUFFER_SIZE) {
 153              		.loc 2 21 5 is_stmt 1 view .LVU28
 154              		.loc 2 21 8 is_stmt 0 view .LVU29
 155 000c B3F5006F 		cmp	r3, #2048
 156 0010 02D3     		bcc	.L11
  22:Inc/ringbuffer.h ****         _ringbuffer_pos_write = 0;
 157              		.loc 2 22 9 is_stmt 1 view .LVU30
 158              		.loc 2 22 31 is_stmt 0 view .LVU31
 159 0012 1346     		mov	r3, r2
 160 0014 0022     		movs	r2, #0
 161 0016 1A60     		str	r2, [r3]
 162              	.L11:
  23:Inc/ringbuffer.h ****     }
  24:Inc/ringbuffer.h **** }
 163              		.loc 2 24 1 view .LVU32
 164 0018 7047     		bx	lr
 165              	.L14:
 166 001a 00BF     		.align	2
 167              	.L13:
 168 001c 00000000 		.word	.LANCHOR0
 169 0020 00000000 		.word	_RINGBUFFER
 170              		.cfi_endproc
 171              	.LFE68:
 173              		.section	.text.ringbuffer_get,"ax",%progbits
 174              		.align	1
 175              		.global	ringbuffer_get
 176              		.syntax unified
 177              		.thumb
 178              		.thumb_func
 179              		.fpu softvfp
 181              	ringbuffer_get:
 182              	.LFB69:
  25:Inc/ringbuffer.h **** 
  26:Inc/ringbuffer.h **** 
  27:Inc/ringbuffer.h **** // read data from ringbuffer
  28:Inc/ringbuffer.h **** unsigned char ringbuffer_get() {
 183              		.loc 2 28 32 is_stmt 1 view -0
 184              		.cfi_startproc
 185              		@ args = 0, pretend = 0, frame = 0
 186              		@ frame_needed = 0, uses_anonymous_args = 0
 187              		@ link register save eliminated.
  29:Inc/ringbuffer.h **** 
  30:Inc/ringbuffer.h ****     // nothing to read
  31:Inc/ringbuffer.h ****     if (_ringbuffer_pos_read == _ringbuffer_pos_write) {
 188              		.loc 2 31 5 view .LVU34
 189              		.loc 2 31 30 is_stmt 0 view .LVU35
 190 0000 094B     		ldr	r3, .L18
 191 0002 1B68     		ldr	r3, [r3]
 192 0004 094A     		ldr	r2, .L18+4
 193 0006 1268     		ldr	r2, [r2]
 194              		.loc 2 31 8 view .LVU36
 195 0008 9342     		cmp	r3, r2
 196 000a 0BD0     		beq	.L17
ARM GAS  /tmp/ccDqKevX.s 			page 5


  32:Inc/ringbuffer.h ****         return 0;
  33:Inc/ringbuffer.h ****     }
  34:Inc/ringbuffer.h **** 
  35:Inc/ringbuffer.h ****     // read data
  36:Inc/ringbuffer.h ****     unsigned char temp = _RINGBUFFER[_ringbuffer_pos_read];
 197              		.loc 2 36 5 is_stmt 1 view .LVU37
 198              		.loc 2 36 19 is_stmt 0 view .LVU38
 199 000c 084A     		ldr	r2, .L18+8
 200 000e D05C     		ldrb	r0, [r2, r3]	@ zero_extendqisi2
 201              	.LVL5:
  37:Inc/ringbuffer.h ****     _ringbuffer_pos_read++;
 202              		.loc 2 37 5 is_stmt 1 view .LVU39
 203              		.loc 2 37 25 is_stmt 0 view .LVU40
 204 0010 0133     		adds	r3, r3, #1
 205 0012 054A     		ldr	r2, .L18
 206 0014 1360     		str	r3, [r2]
  38:Inc/ringbuffer.h ****     if (_ringbuffer_pos_read >= _RINGBUFFER_SIZE) {
 207              		.loc 2 38 5 is_stmt 1 view .LVU41
 208              		.loc 2 38 8 is_stmt 0 view .LVU42
 209 0016 B3F5006F 		cmp	r3, #2048
 210 001a 04D3     		bcc	.L16
  39:Inc/ringbuffer.h ****         _ringbuffer_pos_read = 0;
 211              		.loc 2 39 9 is_stmt 1 view .LVU43
 212              		.loc 2 39 30 is_stmt 0 view .LVU44
 213 001c 1346     		mov	r3, r2
 214 001e 0022     		movs	r2, #0
 215 0020 1A60     		str	r2, [r3]
 216 0022 7047     		bx	lr
 217              	.LVL6:
 218              	.L17:
  32:Inc/ringbuffer.h ****     }
 219              		.loc 2 32 16 view .LVU45
 220 0024 0020     		movs	r0, #0
 221              	.L16:
  40:Inc/ringbuffer.h ****     }
  41:Inc/ringbuffer.h ****     return temp;
  42:Inc/ringbuffer.h **** }
 222              		.loc 2 42 1 view .LVU46
 223 0026 7047     		bx	lr
 224              	.L19:
 225              		.align	2
 226              	.L18:
 227 0028 00000000 		.word	.LANCHOR1
 228 002c 00000000 		.word	.LANCHOR0
 229 0030 00000000 		.word	_RINGBUFFER
 230              		.cfi_endproc
 231              	.LFE69:
 233              		.section	.text.isBusy,"ax",%progbits
 234              		.align	1
 235              		.global	isBusy
 236              		.syntax unified
 237              		.thumb
 238              		.thumb_func
 239              		.fpu softvfp
 241              	isBusy:
 242              	.LFB72:
 243              		.file 3 "Src/main.c"
ARM GAS  /tmp/ccDqKevX.s 			page 6


   1:Src/main.c    **** 
   2:Src/main.c    **** /**
   3:Src/main.c    ****   ******************************************************************************
   4:Src/main.c    ****   * @file           : main.c
   5:Src/main.c    ****   * @brief          : Main program body
   6:Src/main.c    ****   ******************************************************************************
   7:Src/main.c    ****   ** This notice applies to any and all portions of this file
   8:Src/main.c    ****   * that are not between comment pairs USER CODE BEGIN and
   9:Src/main.c    ****   * USER CODE END. Other portions of this file, whether
  10:Src/main.c    ****   * inserted by the user or by software development tools
  11:Src/main.c    ****   * are owned by their respective copyright owners.
  12:Src/main.c    ****   *
  13:Src/main.c    ****   * COPYRIGHT(c) 2022 STMicroelectronics
  14:Src/main.c    ****   *
  15:Src/main.c    ****   * Redistribution and use in source and binary forms, with or without modification,
  16:Src/main.c    ****   * are permitted provided that the following conditions are met:
  17:Src/main.c    ****   *   1. Redistributions of source code must retain the above copyright notice,
  18:Src/main.c    ****   *      this list of conditions and the following disclaimer.
  19:Src/main.c    ****   *   2. Redistributions in binary form must reproduce the above copyright notice,
  20:Src/main.c    ****   *      this list of conditions and the following disclaimer in the documentation
  21:Src/main.c    ****   *      and/or other materials provided with the distribution.
  22:Src/main.c    ****   *   3. Neither the name of STMicroelectronics nor the names of its contributors
  23:Src/main.c    ****   *      may be used to endorse or promote products derived from this software
  24:Src/main.c    ****   *      without specific prior written permission.
  25:Src/main.c    ****   *
  26:Src/main.c    ****   * THIS SOFTWARE IS PROVIDED BY THE COPYRIGHT HOLDERS AND CONTRIBUTORS "AS IS"
  27:Src/main.c    ****   * AND ANY EXPRESS OR IMPLIED WARRANTIES, INCLUDING, BUT NOT LIMITED TO, THE
  28:Src/main.c    ****   * IMPLIED WARRANTIES OF MERCHANTABILITY AND FITNESS FOR A PARTICULAR PURPOSE ARE
  29:Src/main.c    ****   * DISCLAIMED. IN NO EVENT SHALL THE COPYRIGHT HOLDER OR CONTRIBUTORS BE LIABLE
  30:Src/main.c    ****   * FOR ANY DIRECT, INDIRECT, INCIDENTAL, SPECIAL, EXEMPLARY, OR CONSEQUENTIAL
  31:Src/main.c    ****   * DAMAGES (INCLUDING, BUT NOT LIMITED TO, PROCUREMENT OF SUBSTITUTE GOODS OR
  32:Src/main.c    ****   * SERVICES; LOSS OF USE, DATA, OR PROFITS; OR BUSINESS INTERRUPTION) HOWEVER
  33:Src/main.c    ****   * CAUSED AND ON ANY THEORY OF LIABILITY, WHETHER IN CONTRACT, STRICT LIABILITY,
  34:Src/main.c    ****   * OR TORT (INCLUDING NEGLIGENCE OR OTHERWISE) ARISING IN ANY WAY OUT OF THE USE
  35:Src/main.c    ****   * OF THIS SOFTWARE, EVEN IF ADVISED OF THE POSSIBILITY OF SUCH DAMAGE.
  36:Src/main.c    ****   *
  37:Src/main.c    ****   ******************************************************************************
  38:Src/main.c    ****   */
  39:Src/main.c    **** /* Includes ------------------------------------------------------------------*/
  40:Src/main.c    **** #include "main.h"
  41:Src/main.c    **** #include "stm32f1xx_hal.h"
  42:Src/main.c    **** #include "spi.h"
  43:Src/main.c    **** #include "tim.h"
  44:Src/main.c    **** #include "usart.h"
  45:Src/main.c    **** #include "gpio.h"
  46:Src/main.c    **** 
  47:Src/main.c    **** /* USER CODE BEGIN Includes */
  48:Src/main.c    **** 
  49:Src/main.c    **** #include <stdio.h>
  50:Src/main.c    **** #include <stdlib.h>
  51:Src/main.c    **** #include <string.h>
  52:Src/main.c    **** #include "delay_own.h"
  53:Src/main.c    **** #include "ringbuffer.h"
  54:Src/main.c    **** #include "fnt8x8.h"
  55:Src/main.c    **** #include "6x8_vertikal_LSB_1.h"
  56:Src/main.c    **** 
  57:Src/main.c    **** //    ______ _ _        _____            _             _ 
ARM GAS  /tmp/ccDqKevX.s 			page 7


  58:Src/main.c    **** //   |  ____| (_)      / ____|          | |           | |
  59:Src/main.c    **** //   | |__  | |_ _ __ | |     ___  _ __ | |_ _ __ ___ | |
  60:Src/main.c    **** //   |  __| | | | '_ \| |    / _ \| '_ \| __| '__/ _ \| |
  61:Src/main.c    **** //   | |    | | | |_) | |___| (_) | | | | |_| | | (_) | |
  62:Src/main.c    **** //   |_|    |_|_| .__/ \_____\___/|_| |_|\__|_|  \___/|_|
  63:Src/main.c    **** //              | |                                      
  64:Src/main.c    **** //              |_|   written by @ThiroDragon
  65:Src/main.c    **** //                    Version 1.2 (August 2022)
  66:Src/main.c    **** //
  67:Src/main.c    **** //////////////////////////////////////////////////////////
  68:Src/main.c    **** // Changelog:
  69:Src/main.c    **** //
  70:Src/main.c    **** //    V1.0
  71:Src/main.c    **** //      - Initaler Code
  72:Src/main.c    **** //
  73:Src/main.c    **** //    V1.1
  74:Src/main.c    **** //      - Zweite (schmalere) Schriftart implmentiert.
  75:Src/main.c    **** //      - Befehlssatz umgebaut, statt fixer Befehlslänge schließt
  76:Src/main.c    **** //        nun ein Return (0x0A) den jeweiligen Befehl ab
  77:Src/main.c    **** //      - Fehlender PullUp bei SW1-4 aktiviert
  78:Src/main.c    **** //      - "fast_refresh" eingebaut. Wenn dies aktiviert ist, dann
  79:Src/main.c    **** //        wird ein Dot nur noch gesetzt, wenn sich der Zustand vom
  80:Src/main.c    **** //        letzten mal davor geändert hat. Diese Funktion liegt nun
  81:Src/main.c    **** //        auf Schalter SW3.
  82:Src/main.c    **** //      - paar unbenutze Sachen rausgeworfen
  83:Src/main.c    **** //
  84:Src/main.c    **** //    V1.2
  85:Src/main.c    **** //      - Ringpuffer eingebaut und die Befehlsverarbeitung aus dem
  86:Src/main.c    **** //        UART Interrupt entfernt. Desweiteren den Befehlssatz auf
  87:Src/main.c    **** //        lesbare und sinnvolle Befehle umgebaut.
  88:Src/main.c    **** //        Alle Befehle müssen weiterhin mit einem \n abgeschlossen werden.
  89:Src/main.c    **** //      - Textoption für left/center/right, wie auch manuellen Offset eingebaut
  90:Src/main.c    **** //      - Bugfix beim UART Reset
  91:Src/main.c    **** //
  92:Src/main.c    **** //
  93:Src/main.c    **** //    To Do:
  94:Src/main.c    **** //      - Overflow Bug lösen?
  95:Src/main.c    **** //      - Option einfügen, dass Dots nur auf refresh Befehl hin aktualisiert werden
  96:Src/main.c    **** //      - erstes/letztes byte von schrift beinhaltet manchmal keine pixel -< beheben!
  97:Src/main.c    **** //
  98:Src/main.c    **** 
  99:Src/main.c    **** 
 100:Src/main.c    **** /* USER CODE END Includes */
 101:Src/main.c    **** 
 102:Src/main.c    **** /* Private variables ---------------------------------------------------------*/
 103:Src/main.c    **** 
 104:Src/main.c    **** /* USER CODE BEGIN PV */
 105:Src/main.c    **** 
 106:Src/main.c    **** //////////////////////////////////////////////////////
 107:Src/main.c    **** // Grundlegende Einstellungen
 108:Src/main.c    **** //////////////////////////////////////////////////////
 109:Src/main.c    **** 
 110:Src/main.c    **** // BROSE oder LAWO Panel (Änderbar über Onboard Schalter)
 111:Src/main.c    **** // 0 = LAWO
 112:Src/main.c    **** // 1 = BROSE
 113:Src/main.c    **** uint8_t Paneltyp;
 114:Src/main.c    **** 
ARM GAS  /tmp/ccDqKevX.s 			page 8


 115:Src/main.c    **** // Anzahl Panels (Änderbar über Onboard Schalter)
 116:Src/main.c    **** uint8_t Panelanzahl;
 117:Src/main.c    **** 
 118:Src/main.c    **** 
 119:Src/main.c    **** 
 120:Src/main.c    **** 
 121:Src/main.c    **** 
 122:Src/main.c    **** //////////////////////////////////////////////////////
 123:Src/main.c    **** // Variablen
 124:Src/main.c    **** //////////////////////////////////////////////////////
 125:Src/main.c    **** 
 126:Src/main.c    **** // Pixelspeicher
 127:Src/main.c    **** uint32_t* dots;
 128:Src/main.c    **** uint32_t* dots_old;
 129:Src/main.c    **** 
 130:Src/main.c    **** // SPI Handler
 131:Src/main.c    **** SPI_HandleTypeDef hspi1;                // SPI_1 (Zeilen ULN2803, UDN2981)
 132:Src/main.c    **** SPI_HandleTypeDef hspi2;                // SPI_2 (Modulauswahl, Daten + Adressleitungen FP2800)
 133:Src/main.c    **** uint8_t hspi2_data[2] = {0x00, 0x00};   // SPI_2 Zwischenspeicher
 134:Src/main.c    **** 
 135:Src/main.c    **** // UART
 136:Src/main.c    **** uint8_t  uart_puffer = 0;                     // UART Puffer für ein Byte
 137:Src/main.c    **** uint32_t uart_last_time = 0;                  // Zeitmerker, wann letztes Byte kam
 138:Src/main.c    **** #define cmd_buffer_size 100                   // max. Befehlslänge
 139:Src/main.c    **** unsigned char cmd_buffer[cmd_buffer_size];    // Befehlszwischenspeicher
 140:Src/main.c    **** 
 141:Src/main.c    **** // Text
 142:Src/main.c    **** #define max_text_size 200                     // Puffergröße für Texterzeugung (Pixeldaten)
 143:Src/main.c    **** #define max_cmd_args 10                       // maximale Anzahl an Argumenten pro Befehl
 144:Src/main.c    **** uint8_t textbuffer_8px_UP[max_text_size];     // Zwischenspeicher Pixeldaten
 145:Src/main.c    **** uint8_t textbuffer_8px_DOWN[max_text_size];   // Zwischenspeicher Pixeldaten
 146:Src/main.c    **** 
 147:Src/main.c    **** 
 148:Src/main.c    **** 
 149:Src/main.c    **** // Optionen und Merker
 150:Src/main.c    **** uint8_t enable_fast_refresh = 0;        // Setze nur Dots, welche sich ändern -> schneller! (über
 151:Src/main.c    **** uint8_t enable_manually_refresh = 0;    // Nur nach Refresh-Befehl Dots schreiben (Ausnahme: Gelb/S
 152:Src/main.c    **** uint8_t yellow_test_or_center = 0;
 153:Src/main.c    **** uint8_t yellow_test_or_UP_DOWN = 0;
 154:Src/main.c    **** uint8_t start_refresh = 0;              // Vormerker: Pixeldaten ausgeben
 155:Src/main.c    **** uint8_t start_refresh_center = 0;       // Vormerker: Center Text ausgeben
 156:Src/main.c    **** uint8_t start_refresh_UP = 0;           // Vormerker: Top Text ausgeben
 157:Src/main.c    **** uint8_t start_refresh_DOWN = 0;         // Vormerker: Bottom Text ausgeben
 158:Src/main.c    **** uint8_t start_black = 0;                // Vormerker: Schwarzttest
 159:Src/main.c    **** uint8_t start_yellow = 0;               // Vormerker: Gelbtest
 160:Src/main.c    **** 
 161:Src/main.c    **** 
 162:Src/main.c    **** // ENUM für Befehle
 163:Src/main.c    **** enum {
 164:Src/main.c    ****   CMD_ERROR, // error
 165:Src/main.c    ****   CMD_LIGHT,
 166:Src/main.c    ****   CMD_SET_ALL,
 167:Src/main.c    ****   CMD_SET_BUFF,
 168:Src/main.c    ****   CMD_REFRESH,
 169:Src/main.c    ****   CMD_SET_DOT,
 170:Src/main.c    ****   CMD_TEXT_BOTTOM,
 171:Src/main.c    ****   CMD_TEXT_TOP,
ARM GAS  /tmp/ccDqKevX.s 			page 9


 172:Src/main.c    ****   CMD_TEXT_CENTER
 173:Src/main.c    **** };
 174:Src/main.c    **** 
 175:Src/main.c    **** 
 176:Src/main.c    **** 
 177:Src/main.c    **** /* Private variables ---------------------------------------------------------*/
 178:Src/main.c    **** 
 179:Src/main.c    **** /* USER CODE END PV */
 180:Src/main.c    **** 
 181:Src/main.c    **** /* Private function prototypes -----------------------------------------------*/
 182:Src/main.c    **** void SystemClock_Config(void);
 183:Src/main.c    **** 
 184:Src/main.c    **** /* USER CODE BEGIN PFP */
 185:Src/main.c    **** /* Private function prototypes -----------------------------------------------*/
 186:Src/main.c    **** 
 187:Src/main.c    **** // Hardware Funktionen
 188:Src/main.c    **** void Zeile_aktivieren(uint8_t Zeile, uint8_t SET_RESET);
 189:Src/main.c    **** void Spalte_aktivieren(uint8_t Spalte, uint8_t SET_RESET);
 190:Src/main.c    **** void Modul_aktivieren(uint8_t Modul, uint8_t ON_OFF);
 191:Src/main.c    **** void Write_Dots(uint8_t from_x, uint8_t to_x, uint8_t from_y, uint8_t to_y);
 192:Src/main.c    **** 
 193:Src/main.c    **** // Software Funktionen
 194:Src/main.c    **** int generate_text(uint8_t* text_in, uint8_t* text_out, int start, int end, uint8_t text_selector);
 195:Src/main.c    **** uint8_t bit_not_changed(uint8_t x, uint8_t y);
 196:Src/main.c    **** void save_written_dots(void);
 197:Src/main.c    **** int Run_CMD(unsigned char* command);
 198:Src/main.c    **** int isBusy();
 199:Src/main.c    **** 
 200:Src/main.c    **** 
 201:Src/main.c    **** /* USER CODE END PFP */
 202:Src/main.c    **** 
 203:Src/main.c    **** /* USER CODE BEGIN 0 */
 204:Src/main.c    **** 
 205:Src/main.c    **** /* USER CODE END 0 */
 206:Src/main.c    **** 
 207:Src/main.c    **** /**
 208:Src/main.c    ****   * @brief  The application entry point.
 209:Src/main.c    ****   *
 210:Src/main.c    ****   * @retval None
 211:Src/main.c    ****   */
 212:Src/main.c    **** int main(void)
 213:Src/main.c    **** {
 214:Src/main.c    ****   /* USER CODE BEGIN 1 */
 215:Src/main.c    **** 
 216:Src/main.c    ****   /* USER CODE END 1 */
 217:Src/main.c    **** 
 218:Src/main.c    ****   /* MCU Configuration----------------------------------------------------------*/
 219:Src/main.c    **** 
 220:Src/main.c    ****   /* Reset of all peripherals, Initializes the Flash interface and the Systick. */
 221:Src/main.c    ****   HAL_Init();
 222:Src/main.c    **** 
 223:Src/main.c    ****   /* USER CODE BEGIN Init */
 224:Src/main.c    **** 
 225:Src/main.c    ****   /* USER CODE END Init */
 226:Src/main.c    **** 
 227:Src/main.c    ****   /* Configure the system clock */
 228:Src/main.c    ****   SystemClock_Config();
ARM GAS  /tmp/ccDqKevX.s 			page 10


 229:Src/main.c    **** 
 230:Src/main.c    ****   /* USER CODE BEGIN SysInit */
 231:Src/main.c    **** 
 232:Src/main.c    ****   /* USER CODE END SysInit */
 233:Src/main.c    **** 
 234:Src/main.c    ****   /* Initialize all configured peripherals */
 235:Src/main.c    ****   MX_GPIO_Init();
 236:Src/main.c    ****   MX_SPI1_Init();
 237:Src/main.c    ****   MX_SPI2_Init();
 238:Src/main.c    ****   MX_USART1_UART_Init();
 239:Src/main.c    ****   MX_TIM2_Init();
 240:Src/main.c    ****   /* USER CODE BEGIN 2 */
 241:Src/main.c    **** 
 242:Src/main.c    **** 
 243:Src/main.c    ****   //////////////////////////////////////////////////////
 244:Src/main.c    ****   // Basiseinstellungen abfragen
 245:Src/main.c    ****   //////////////////////////////////////////////////////
 246:Src/main.c    **** 
 247:Src/main.c    ****   // Switch 1
 248:Src/main.c    ****   // ---------
 249:Src/main.c    ****   #define LAWO 0
 250:Src/main.c    ****   #define BROSE 1
 251:Src/main.c    ****   if(!HAL_GPIO_ReadPin(SW_4_GPIO_Port, SW_4_Pin)) {
 252:Src/main.c    ****     Paneltyp = BROSE; // ON
 253:Src/main.c    ****   } else {
 254:Src/main.c    ****     Paneltyp = LAWO; // OFF
 255:Src/main.c    ****   }
 256:Src/main.c    **** 
 257:Src/main.c    ****   // Switch 2
 258:Src/main.c    ****   // ---------
 259:Src/main.c    ****   // 0 = 3 Panels (84px  Breite)
 260:Src/main.c    ****   // 1 = 4 Panels (112px Breite)
 261:Src/main.c    ****   if(!HAL_GPIO_ReadPin(SW_3_GPIO_Port, SW_3_Pin)) {
 262:Src/main.c    ****     Panelanzahl = 4; // ON (Brose)
 263:Src/main.c    ****   } else {
 264:Src/main.c    ****     Panelanzahl = 3; // OFF (Lawo)
 265:Src/main.c    ****   }
 266:Src/main.c    **** 
 267:Src/main.c    ****   // Switch 3
 268:Src/main.c    ****   // ---------
 269:Src/main.c    ****   // 0 = fast_refresh OFF
 270:Src/main.c    ****   // 1 = fast_refresh ON
 271:Src/main.c    ****   if(!HAL_GPIO_ReadPin(SW_2_GPIO_Port, SW_2_Pin)) {
 272:Src/main.c    ****     enable_fast_refresh = 1;
 273:Src/main.c    ****   } else {
 274:Src/main.c    ****     enable_fast_refresh = 0;
 275:Src/main.c    ****   }
 276:Src/main.c    **** 
 277:Src/main.c    ****   // Switch 4
 278:Src/main.c    ****   // ---------
 279:Src/main.c    ****   // 0 = deaktiviere manuelles Refreshen
 280:Src/main.c    ****   // 1 =   aktiviere manuelles Refreshen
 281:Src/main.c    ****   if(!HAL_GPIO_ReadPin(SW_1_GPIO_Port, SW_1_Pin)) {
 282:Src/main.c    ****     enable_manually_refresh = 1;
 283:Src/main.c    ****   } else {
 284:Src/main.c    ****     enable_manually_refresh = 0;
 285:Src/main.c    ****   }
ARM GAS  /tmp/ccDqKevX.s 			page 11


 286:Src/main.c    **** 
 287:Src/main.c    **** 
 288:Src/main.c    **** 
 289:Src/main.c    ****   //////////////////////////////////////////////////////
 290:Src/main.c    ****   // Speicher initalisieren
 291:Src/main.c    ****   //////////////////////////////////////////////////////
 292:Src/main.c    **** 
 293:Src/main.c    ****   // Initalzustände aktivieren
 294:Src/main.c    ****   HAL_GPIO_WritePin(Spalten_RESET_GPIO_Port, Spalten_RESET_Pin, 1);
 295:Src/main.c    ****   HAL_GPIO_WritePin(Spalten_OE_GPIO_Port, Spalten_OE_Pin, 0);
 296:Src/main.c    **** 
 297:Src/main.c    ****   // Pixelspeicher
 298:Src/main.c    ****   dots = (uint32_t*)malloc(Panelanzahl * 28 * sizeof(uint32_t));
 299:Src/main.c    ****   if (dots == NULL) {
 300:Src/main.c    ****     while (1) {
 301:Src/main.c    **** 
 302:Src/main.c    ****       // Bei Speicherfehler -> blinken
 303:Src/main.c    ****       HAL_GPIO_WritePin(OnboardLED_GPIO_Port, OnboardLED_Pin, 1);
 304:Src/main.c    ****       HAL_Delay(500);
 305:Src/main.c    ****       HAL_GPIO_WritePin(OnboardLED_GPIO_Port, OnboardLED_Pin, 0);
 306:Src/main.c    ****       HAL_Delay(500);
 307:Src/main.c    ****     }
 308:Src/main.c    ****   }
 309:Src/main.c    **** 
 310:Src/main.c    ****   // Pixelspeicher (letzter Zustand)
 311:Src/main.c    ****   dots_old = (uint32_t*)malloc(Panelanzahl * 28 * sizeof(uint32_t));
 312:Src/main.c    ****   if (dots_old == NULL) {
 313:Src/main.c    ****     while (1) {
 314:Src/main.c    **** 
 315:Src/main.c    ****       // Bei Speicherfehler -> blinken
 316:Src/main.c    ****       HAL_GPIO_WritePin(OnboardLED_GPIO_Port, OnboardLED_Pin, 1);
 317:Src/main.c    ****       HAL_Delay(500);
 318:Src/main.c    ****       HAL_GPIO_WritePin(OnboardLED_GPIO_Port, OnboardLED_Pin, 0);
 319:Src/main.c    ****       HAL_Delay(500);
 320:Src/main.c    ****     }
 321:Src/main.c    ****   }
 322:Src/main.c    **** 
 323:Src/main.c    ****   // Pixelspeicher initalisieren
 324:Src/main.c    ****   for (uint8_t i=0; i < Panelanzahl * 28; i++) {
 325:Src/main.c    ****     dots[i] = 0;
 326:Src/main.c    ****     dots_old[i] = 0;
 327:Src/main.c    ****   }
 328:Src/main.c    **** 
 329:Src/main.c    ****   // Ringbuffer initalisieren
 330:Src/main.c    ****   ringbuffer_init();
 331:Src/main.c    **** 
 332:Src/main.c    ****   
 333:Src/main.c    **** 
 334:Src/main.c    **** 
 335:Src/main.c    **** 
 336:Src/main.c    **** 
 337:Src/main.c    ****   //////////////////////////////////////////////////////
 338:Src/main.c    ****   // Interrupts initalisieren
 339:Src/main.c    ****   //////////////////////////////////////////////////////
 340:Src/main.c    **** 
 341:Src/main.c    ****   // UART1 Interrupt aktivieren
 342:Src/main.c    ****   HAL_UART_Receive_IT(&huart1, &uart_puffer, 1);
ARM GAS  /tmp/ccDqKevX.s 			page 12


 343:Src/main.c    ****   HAL_NVIC_EnableIRQ(USART1_IRQn);
 344:Src/main.c    **** 
 345:Src/main.c    ****   // Timer2 Interrupt aktivieren (aktuell nicht in Verwendung!!)
 346:Src/main.c    ****   // HAL_TIM_Base_Start_IT(&htim2);
 347:Src/main.c    **** 
 348:Src/main.c    **** 
 349:Src/main.c    **** 
 350:Src/main.c    ****   /* USER CODE END 2 */
 351:Src/main.c    **** 
 352:Src/main.c    ****   /* Infinite loop */
 353:Src/main.c    ****   /* USER CODE BEGIN WHILE */
 354:Src/main.c    ****   while (1)
 355:Src/main.c    ****   {
 356:Src/main.c    **** 
 357:Src/main.c    ****   /* USER CODE END WHILE */
 358:Src/main.c    **** 
 359:Src/main.c    ****   /* USER CODE BEGIN 3 */
 360:Src/main.c    **** 
 361:Src/main.c    ****   //////////////////////////////////////////////////////
 362:Src/main.c    ****   // Taster u. Variablen Abfragen durchführen
 363:Src/main.c    ****   //////////////////////////////////////////////////////
 364:Src/main.c    **** 
 365:Src/main.c    ****   // Taster Abfrage: Gelb-Test
 366:Src/main.c    ****   if (!HAL_GPIO_ReadPin(Test_Gelb_GPIO_Port, Test_Gelb_Pin) || start_yellow) {
 367:Src/main.c    ****     uint8_t Zeilen = 0;
 368:Src/main.c    ****     uint8_t enable_fast_refresh_current = enable_fast_refresh;
 369:Src/main.c    ****     enable_fast_refresh = 0; // disable fast_refresh for bl/yl test
 370:Src/main.c    ****     for (uint8_t i=0; i < Panelanzahl * 28; i++)
 371:Src/main.c    ****         dots[i] = 0xFFFFFFFF;
 372:Src/main.c    ****     if (Paneltyp == LAWO)  { Zeilen = 16; }
 373:Src/main.c    ****     if (Paneltyp == BROSE) { Zeilen = 19; }
 374:Src/main.c    ****     Write_Dots(0, (Panelanzahl * 28) - 1, 0, Zeilen - 1);
 375:Src/main.c    ****     enable_fast_refresh = enable_fast_refresh_current;
 376:Src/main.c    ****     yellow_test_or_center = 1;
 377:Src/main.c    ****     yellow_test_or_UP_DOWN = 1;
 378:Src/main.c    ****     start_yellow = 0;
 379:Src/main.c    **** 
 380:Src/main.c    ****     // Speichere aktuellen Zustand
 381:Src/main.c    ****     save_written_dots();
 382:Src/main.c    ****   }
 383:Src/main.c    **** 
 384:Src/main.c    ****   // Taster Abfrage: Schwarz-Test
 385:Src/main.c    ****   if (!HAL_GPIO_ReadPin(Test_Schwarz_GPIO_Port, Test_Schwarz_Pin) || start_black) {
 386:Src/main.c    ****     uint8_t Zeilen = 0;
 387:Src/main.c    ****     uint8_t enable_fast_refresh_current = enable_fast_refresh;
 388:Src/main.c    ****     enable_fast_refresh = 0; // disable fast_refresh for bl/yl test
 389:Src/main.c    ****     for (uint8_t i=0; i < Panelanzahl * 28; i++)
 390:Src/main.c    ****         dots[i] = 0x00000000;
 391:Src/main.c    ****     if (Paneltyp == LAWO)  { Zeilen = 16; }
 392:Src/main.c    ****     if (Paneltyp == BROSE) { Zeilen = 19; }
 393:Src/main.c    ****     Write_Dots(0, (Panelanzahl * 28) - 1, 0, Zeilen - 1);
 394:Src/main.c    ****     enable_fast_refresh = enable_fast_refresh_current;
 395:Src/main.c    ****     yellow_test_or_center = 0;
 396:Src/main.c    ****     yellow_test_or_UP_DOWN = 0;
 397:Src/main.c    ****     start_black = 0;
 398:Src/main.c    **** 
 399:Src/main.c    ****     // Speichere aktuellen Zustand
ARM GAS  /tmp/ccDqKevX.s 			page 13


 400:Src/main.c    ****     save_written_dots();
 401:Src/main.c    ****   }
 402:Src/main.c    **** 
 403:Src/main.c    ****   // Taster Abfrage: Lampen-Test
 404:Src/main.c    ****   if (!HAL_GPIO_ReadPin(Test_Lampe_GPIO_Port, Test_Lampe_Pin)) {
 405:Src/main.c    ****     static uint32_t blocked_until = 0;
 406:Src/main.c    ****     if (HAL_GetTick() > blocked_until) {
 407:Src/main.c    ****       if (HAL_GPIO_ReadPin(Lampe_GPIO_Port, Lampe_Pin)) {
 408:Src/main.c    ****         HAL_GPIO_WritePin(Lampe_GPIO_Port, Lampe_Pin, 0);
 409:Src/main.c    ****       } else {
 410:Src/main.c    ****         HAL_GPIO_WritePin(Lampe_GPIO_Port, Lampe_Pin, 1);
 411:Src/main.c    ****       }
 412:Src/main.c    ****       blocked_until = HAL_GetTick() + 400;
 413:Src/main.c    ****     }
 414:Src/main.c    ****   }
 415:Src/main.c    **** 
 416:Src/main.c    **** 
 417:Src/main.c    ****   //////////////////////////////////////////////////////
 418:Src/main.c    ****   // Anzeigeninhalt aktualisieren
 419:Src/main.c    ****   //////////////////////////////////////////////////////
 420:Src/main.c    ****   if (start_refresh) {
 421:Src/main.c    ****     uint8_t anzahl_spalten = 20;
 422:Src/main.c    ****     if (Paneltyp == LAWO)  { anzahl_spalten=16; }
 423:Src/main.c    ****     if (Paneltyp == BROSE) { anzahl_spalten=19; }
 424:Src/main.c    ****     Write_Dots(0, (Panelanzahl * 28) - 1, 0, anzahl_spalten - 1);
 425:Src/main.c    ****     start_refresh = 0;
 426:Src/main.c    **** 
 427:Src/main.c    ****     // Speichere aktuellen Zustand
 428:Src/main.c    ****     save_written_dots();
 429:Src/main.c    ****   }
 430:Src/main.c    **** 
 431:Src/main.c    **** 
 432:Src/main.c    **** 
 433:Src/main.c    **** 
 434:Src/main.c    ****   ////////////////////////////////////////////////////////////
 435:Src/main.c    ****   // Anzeigeninhalt aktualisieren (Text)
 436:Src/main.c    ****   ////////////////////////////////////////////////////////////
 437:Src/main.c    ****   // Text mittig
 438:Src/main.c    ****   if (start_refresh_center) {
 439:Src/main.c    ****     Write_Dots(0, (Panelanzahl * 28) - 1, 4, 11);
 440:Src/main.c    ****     start_refresh_center = 0;
 441:Src/main.c    **** 
 442:Src/main.c    ****     // Speichere aktuellen Zustand
 443:Src/main.c    ****     save_written_dots();
 444:Src/main.c    ****   }
 445:Src/main.c    **** 
 446:Src/main.c    ****   // Text oben
 447:Src/main.c    ****   if (start_refresh_UP) {
 448:Src/main.c    ****     uint8_t offset = 0;
 449:Src/main.c    ****     if (Paneltyp == LAWO)  { offset=0; }
 450:Src/main.c    ****     if (Paneltyp == BROSE) { offset=0; }
 451:Src/main.c    ****     Write_Dots(0, (Panelanzahl * 28) - 1, 0, 7+offset);
 452:Src/main.c    ****     start_refresh_UP = 0;
 453:Src/main.c    **** 
 454:Src/main.c    ****     // Speichere aktuellen Zustand
 455:Src/main.c    ****     save_written_dots();
 456:Src/main.c    ****   }
ARM GAS  /tmp/ccDqKevX.s 			page 14


 457:Src/main.c    **** 
 458:Src/main.c    ****   // Text unten
 459:Src/main.c    ****   if (start_refresh_DOWN) {
 460:Src/main.c    ****     uint8_t anzahl_spalten = 20;
 461:Src/main.c    ****     if (Paneltyp == LAWO)  { anzahl_spalten=16; }
 462:Src/main.c    ****     if (Paneltyp == BROSE) { anzahl_spalten=19; }
 463:Src/main.c    ****     Write_Dots(0, (Panelanzahl * 28) - 1, anzahl_spalten - 8, anzahl_spalten - 1);
 464:Src/main.c    ****     start_refresh_DOWN = 0;
 465:Src/main.c    **** 
 466:Src/main.c    ****     // Speichere aktuellen Zustand
 467:Src/main.c    ****     save_written_dots();
 468:Src/main.c    ****   }
 469:Src/main.c    **** 
 470:Src/main.c    **** 
 471:Src/main.c    ****   //////////////////////////////////////////////////////
 472:Src/main.c    ****   // UART Buffer auslesen und Befehle starten
 473:Src/main.c    ****   //////////////////////////////////////////////////////
 474:Src/main.c    ****   unsigned char _temp_char = ringbuffer_get();
 475:Src/main.c    ****   static uint32_t cmd_buffer_pos = 0;
 476:Src/main.c    ****   while (_temp_char) {
 477:Src/main.c    **** 
 478:Src/main.c    ****     // Aktuelles Zeichen in Befehlspuffer laden
 479:Src/main.c    ****     cmd_buffer[cmd_buffer_pos] = _temp_char;
 480:Src/main.c    ****     cmd_buffer_pos++;
 481:Src/main.c    ****     if (cmd_buffer_pos >= cmd_buffer_size) {
 482:Src/main.c    ****       cmd_buffer_pos = 0;
 483:Src/main.c    ****       break;
 484:Src/main.c    ****     }
 485:Src/main.c    **** 
 486:Src/main.c    ****     // Befehl vollständig ausgelesen ?
 487:Src/main.c    ****     if (_temp_char == '\n') {
 488:Src/main.c    ****       cmd_buffer[cmd_buffer_pos] = '\0';
 489:Src/main.c    ****       cmd_buffer_pos = 0;
 490:Src/main.c    **** 
 491:Src/main.c    ****       // Befehl ausführen
 492:Src/main.c    ****       Run_CMD(cmd_buffer);
 493:Src/main.c    ****       break;
 494:Src/main.c    ****     }
 495:Src/main.c    **** 
 496:Src/main.c    ****     // Neues Zeichen aus UART/Ringpuffer laden
 497:Src/main.c    ****     _temp_char = ringbuffer_get();
 498:Src/main.c    ****   }
 499:Src/main.c    **** 
 500:Src/main.c    ****   
 501:Src/main.c    **** 
 502:Src/main.c    ****   
 503:Src/main.c    ****   
 504:Src/main.c    **** 
 505:Src/main.c    **** 
 506:Src/main.c    **** 
 507:Src/main.c    **** 
 508:Src/main.c    ****   //////////////////////////////////////////////////////
 509:Src/main.c    ****   // UART nach 250ms zurücksetzen
 510:Src/main.c    ****   //////////////////////////////////////////////////////
 511:Src/main.c    ****   if (HAL_GetTick() > (uart_last_time + 250) && uart_last_time != 0 && !isBusy()) {
 512:Src/main.c    ****     cmd_buffer_pos = 0;
 513:Src/main.c    ****     ringbuffer_init();
ARM GAS  /tmp/ccDqKevX.s 			page 15


 514:Src/main.c    ****     uart_last_time = HAL_GetTick();
 515:Src/main.c    ****   }
 516:Src/main.c    ****   if (HAL_GetTick() > (uart_last_time + 50)) {
 517:Src/main.c    ****     HAL_GPIO_WritePin(LED_RX_GPIO_Port, LED_RX_Pin,  0);
 518:Src/main.c    ****     uart_last_time = HAL_GetTick();
 519:Src/main.c    ****   }
 520:Src/main.c    **** 
 521:Src/main.c    **** 
 522:Src/main.c    **** 
 523:Src/main.c    ****   }
 524:Src/main.c    ****   /* USER CODE END 3 */
 525:Src/main.c    **** 
 526:Src/main.c    **** }
 527:Src/main.c    **** 
 528:Src/main.c    **** /**
 529:Src/main.c    ****   * @brief System Clock Configuration
 530:Src/main.c    ****   * @retval None
 531:Src/main.c    ****   */
 532:Src/main.c    **** void SystemClock_Config(void)
 533:Src/main.c    **** {
 534:Src/main.c    **** 
 535:Src/main.c    ****   RCC_OscInitTypeDef RCC_OscInitStruct;
 536:Src/main.c    ****   RCC_ClkInitTypeDef RCC_ClkInitStruct;
 537:Src/main.c    **** 
 538:Src/main.c    ****     /**Initializes the CPU, AHB and APB busses clocks
 539:Src/main.c    ****     */
 540:Src/main.c    ****   RCC_OscInitStruct.OscillatorType = RCC_OSCILLATORTYPE_HSE;
 541:Src/main.c    ****   RCC_OscInitStruct.HSEState = RCC_HSE_ON;
 542:Src/main.c    ****   RCC_OscInitStruct.HSEPredivValue = RCC_HSE_PREDIV_DIV1;
 543:Src/main.c    ****   RCC_OscInitStruct.HSIState = RCC_HSI_ON;
 544:Src/main.c    ****   RCC_OscInitStruct.PLL.PLLState = RCC_PLL_ON;
 545:Src/main.c    ****   RCC_OscInitStruct.PLL.PLLSource = RCC_PLLSOURCE_HSE;
 546:Src/main.c    ****   RCC_OscInitStruct.PLL.PLLMUL = RCC_PLL_MUL9;
 547:Src/main.c    ****   if (HAL_RCC_OscConfig(&RCC_OscInitStruct) != HAL_OK)
 548:Src/main.c    ****   {
 549:Src/main.c    ****     _Error_Handler(__FILE__, __LINE__);
 550:Src/main.c    ****   }
 551:Src/main.c    **** 
 552:Src/main.c    ****     /**Initializes the CPU, AHB and APB busses clocks
 553:Src/main.c    ****     */
 554:Src/main.c    ****   RCC_ClkInitStruct.ClockType = RCC_CLOCKTYPE_HCLK|RCC_CLOCKTYPE_SYSCLK
 555:Src/main.c    ****                               |RCC_CLOCKTYPE_PCLK1|RCC_CLOCKTYPE_PCLK2;
 556:Src/main.c    ****   RCC_ClkInitStruct.SYSCLKSource = RCC_SYSCLKSOURCE_PLLCLK;
 557:Src/main.c    ****   RCC_ClkInitStruct.AHBCLKDivider = RCC_SYSCLK_DIV1;
 558:Src/main.c    ****   RCC_ClkInitStruct.APB1CLKDivider = RCC_HCLK_DIV2;
 559:Src/main.c    ****   RCC_ClkInitStruct.APB2CLKDivider = RCC_HCLK_DIV1;
 560:Src/main.c    **** 
 561:Src/main.c    ****   if (HAL_RCC_ClockConfig(&RCC_ClkInitStruct, FLASH_LATENCY_2) != HAL_OK)
 562:Src/main.c    ****   {
 563:Src/main.c    ****     _Error_Handler(__FILE__, __LINE__);
 564:Src/main.c    ****   }
 565:Src/main.c    **** 
 566:Src/main.c    ****     /**Configure the Systick interrupt time
 567:Src/main.c    ****     */
 568:Src/main.c    ****   HAL_SYSTICK_Config(HAL_RCC_GetHCLKFreq()/1000);
 569:Src/main.c    **** 
 570:Src/main.c    ****     /**Configure the Systick
ARM GAS  /tmp/ccDqKevX.s 			page 16


 571:Src/main.c    ****     */
 572:Src/main.c    ****   HAL_SYSTICK_CLKSourceConfig(SYSTICK_CLKSOURCE_HCLK);
 573:Src/main.c    **** 
 574:Src/main.c    ****   /* SysTick_IRQn interrupt configuration */
 575:Src/main.c    ****   HAL_NVIC_SetPriority(SysTick_IRQn, 0, 0);
 576:Src/main.c    **** }
 577:Src/main.c    **** 
 578:Src/main.c    **** /* USER CODE BEGIN 4 */
 579:Src/main.c    **** 
 580:Src/main.c    **** //////////////////////////////////////////////////////
 581:Src/main.c    **** // FlipDot Schreibprozess aktiv?
 582:Src/main.c    **** //////////////////////////////////////////////////////
 583:Src/main.c    **** int isBusy() {
 244              		.loc 3 583 14 is_stmt 1 view -0
 245              		.cfi_startproc
 246              		@ args = 0, pretend = 0, frame = 0
 247              		@ frame_needed = 0, uses_anonymous_args = 0
 248              		@ link register save eliminated.
 584:Src/main.c    ****   return start_refresh | start_refresh_center | start_refresh_DOWN | start_refresh_UP | start_yello
 249              		.loc 3 584 3 view .LVU48
 250              		.loc 3 584 102 is_stmt 0 view .LVU49
 251 0000 084B     		ldr	r3, .L21
 252 0002 1B78     		ldrb	r3, [r3]	@ zero_extendqisi2
 253 0004 084A     		ldr	r2, .L21+4
 254 0006 1078     		ldrb	r0, [r2]	@ zero_extendqisi2
 255 0008 0343     		orrs	r3, r3, r0
 256 000a 084A     		ldr	r2, .L21+8
 257 000c 1078     		ldrb	r0, [r2]	@ zero_extendqisi2
 258 000e 0343     		orrs	r3, r3, r0
 259 0010 074A     		ldr	r2, .L21+12
 260 0012 1078     		ldrb	r0, [r2]	@ zero_extendqisi2
 261 0014 0343     		orrs	r3, r3, r0
 262 0016 074A     		ldr	r2, .L21+16
 263 0018 1078     		ldrb	r0, [r2]	@ zero_extendqisi2
 264 001a 0343     		orrs	r3, r3, r0
 265 001c 064A     		ldr	r2, .L21+20
 266 001e 1078     		ldrb	r0, [r2]	@ zero_extendqisi2
 585:Src/main.c    **** }
 267              		.loc 3 585 1 view .LVU50
 268 0020 1843     		orrs	r0, r0, r3
 269 0022 7047     		bx	lr
 270              	.L22:
 271              		.align	2
 272              	.L21:
 273 0024 00000000 		.word	.LANCHOR2
 274 0028 00000000 		.word	.LANCHOR3
 275 002c 00000000 		.word	.LANCHOR4
 276 0030 00000000 		.word	.LANCHOR5
 277 0034 00000000 		.word	.LANCHOR6
 278 0038 00000000 		.word	.LANCHOR7
 279              		.cfi_endproc
 280              	.LFE72:
 282              		.section	.text.HAL_UART_RxCpltCallback,"ax",%progbits
 283              		.align	1
 284              		.global	HAL_UART_RxCpltCallback
 285              		.syntax unified
 286              		.thumb
ARM GAS  /tmp/ccDqKevX.s 			page 17


 287              		.thumb_func
 288              		.fpu softvfp
 290              	HAL_UART_RxCpltCallback:
 291              	.LVL7:
 292              	.LFB73:
 586:Src/main.c    **** 
 587:Src/main.c    **** 
 588:Src/main.c    **** //////////////////////////////////////////////////////
 589:Src/main.c    **** // UART Interrupts verarbeiten
 590:Src/main.c    **** //////////////////////////////////////////////////////
 591:Src/main.c    **** void HAL_UART_RxCpltCallback(UART_HandleTypeDef *huart) {
 293              		.loc 3 591 57 is_stmt 1 view -0
 294              		.cfi_startproc
 295              		@ args = 0, pretend = 0, frame = 0
 296              		@ frame_needed = 0, uses_anonymous_args = 0
 592:Src/main.c    **** 
 593:Src/main.c    ****   // UART 1
 594:Src/main.c    ****   if (huart->Instance == USART1) {
 297              		.loc 3 594 3 view .LVU52
 298              		.loc 3 594 12 is_stmt 0 view .LVU53
 299 0000 0268     		ldr	r2, [r0]
 300              		.loc 3 594 6 view .LVU54
 301 0002 0C4B     		ldr	r3, .L30
 302 0004 9A42     		cmp	r2, r3
 303 0006 00D0     		beq	.L29
 304 0008 7047     		bx	lr
 305              	.L29:
 591:Src/main.c    **** 
 306              		.loc 3 591 57 view .LVU55
 307 000a 10B5     		push	{r4, lr}
 308              	.LCFI3:
 309              		.cfi_def_cfa_offset 8
 310              		.cfi_offset 4, -8
 311              		.cfi_offset 14, -4
 595:Src/main.c    **** 
 596:Src/main.c    ****     // RX LED einschalten
 597:Src/main.c    ****     HAL_GPIO_WritePin(LED_RX_GPIO_Port, LED_RX_Pin,  1);
 312              		.loc 3 597 5 is_stmt 1 view .LVU56
 313 000c 0122     		movs	r2, #1
 314 000e 8021     		movs	r1, #128
 315 0010 0948     		ldr	r0, .L30+4
 316              	.LVL8:
 317              		.loc 3 597 5 is_stmt 0 view .LVU57
 318 0012 FFF7FEFF 		bl	HAL_GPIO_WritePin
 319              	.LVL9:
 598:Src/main.c    **** 
 599:Src/main.c    ****     //////////////////////////////////////////////////////
 600:Src/main.c    ****     // Daten wegschreiben
 601:Src/main.c    ****     //////////////////////////////////////////////////////
 602:Src/main.c    ****     ringbuffer_pushback((unsigned char)uart_puffer);
 320              		.loc 3 602 5 is_stmt 1 view .LVU58
 321 0016 094C     		ldr	r4, .L30+8
 322 0018 2078     		ldrb	r0, [r4]	@ zero_extendqisi2
 323 001a FFF7FEFF 		bl	ringbuffer_pushback
 324              	.LVL10:
 603:Src/main.c    **** 
 604:Src/main.c    ****     // RX LED wieder ausschalten
ARM GAS  /tmp/ccDqKevX.s 			page 18


 605:Src/main.c    ****     // HAL_GPIO_WritePin(LED_RX_GPIO_Port, LED_RX_Pin,  0);
 606:Src/main.c    ****     // Wird im Hauptprogramm nach einem gewissen Delay wieder ausgeschaltet!
 607:Src/main.c    **** 
 608:Src/main.c    ****     // Aktuelle Zeit speichern
 609:Src/main.c    ****     uart_last_time = HAL_GetTick();
 325              		.loc 3 609 5 view .LVU59
 326              		.loc 3 609 22 is_stmt 0 view .LVU60
 327 001e FFF7FEFF 		bl	HAL_GetTick
 328              	.LVL11:
 329              		.loc 3 609 20 view .LVU61
 330 0022 074B     		ldr	r3, .L30+12
 331 0024 1860     		str	r0, [r3]
 610:Src/main.c    ****     
 611:Src/main.c    ****     // Interrupt erneut starten
 612:Src/main.c    ****     HAL_UART_Receive_IT(&huart1, &uart_puffer, 1);
 332              		.loc 3 612 5 is_stmt 1 view .LVU62
 333 0026 0122     		movs	r2, #1
 334 0028 2146     		mov	r1, r4
 335 002a 0648     		ldr	r0, .L30+16
 336 002c FFF7FEFF 		bl	HAL_UART_Receive_IT
 337              	.LVL12:
 613:Src/main.c    ****   }
 614:Src/main.c    **** }
 338              		.loc 3 614 1 is_stmt 0 view .LVU63
 339 0030 10BD     		pop	{r4, pc}
 340              	.L31:
 341 0032 00BF     		.align	2
 342              	.L30:
 343 0034 00380140 		.word	1073821696
 344 0038 000C0140 		.word	1073810432
 345 003c 00000000 		.word	.LANCHOR8
 346 0040 00000000 		.word	.LANCHOR9
 347 0044 00000000 		.word	huart1
 348              		.cfi_endproc
 349              	.LFE73:
 351              		.section	.text.HAL_TIM_PeriodElapsedCallback,"ax",%progbits
 352              		.align	1
 353              		.global	HAL_TIM_PeriodElapsedCallback
 354              		.syntax unified
 355              		.thumb
 356              		.thumb_func
 357              		.fpu softvfp
 359              	HAL_TIM_PeriodElapsedCallback:
 360              	.LVL13:
 361              	.LFB74:
 615:Src/main.c    **** 
 616:Src/main.c    **** 
 617:Src/main.c    **** 
 618:Src/main.c    **** //////////////////////////////////////////////////////
 619:Src/main.c    **** // Timer Interrupts verarbeiten
 620:Src/main.c    **** //////////////////////////////////////////////////////
 621:Src/main.c    **** void HAL_TIM_PeriodElapsedCallback(TIM_HandleTypeDef *htim) {
 362              		.loc 3 621 61 is_stmt 1 view -0
 363              		.cfi_startproc
 364              		@ args = 0, pretend = 0, frame = 0
 365              		@ frame_needed = 0, uses_anonymous_args = 0
 366              		@ link register save eliminated.
ARM GAS  /tmp/ccDqKevX.s 			page 19


 622:Src/main.c    **** 
 623:Src/main.c    ****   // Timer 2 (Multiplexing)
 624:Src/main.c    ****   if (htim->Instance == TIM2) {
 367              		.loc 3 624 3 view .LVU65
 625:Src/main.c    **** 
 626:Src/main.c    ****     // TIMER 2 ist deaktiviert!!
 627:Src/main.c    **** 
 628:Src/main.c    ****     // Auf nächsten Schritt umschalten und berechnete Zeit warten!
 629:Src/main.c    ****     //__HAL_TIM_SET_COUNTER(&htim2, 0);
 630:Src/main.c    ****     //__HAL_TIM_SET_AUTORELOAD(&htim2, (on_time)+4);
 631:Src/main.c    ****   }
 368              		.loc 3 631 3 view .LVU66
 632:Src/main.c    **** }
 369              		.loc 3 632 1 is_stmt 0 view .LVU67
 370 0000 7047     		bx	lr
 371              		.cfi_endproc
 372              	.LFE74:
 374              		.section	.text.Zeile_aktivieren,"ax",%progbits
 375              		.align	1
 376              		.global	Zeile_aktivieren
 377              		.syntax unified
 378              		.thumb
 379              		.thumb_func
 380              		.fpu softvfp
 382              	Zeile_aktivieren:
 383              	.LVL14:
 384              	.LFB76:
 633:Src/main.c    **** 
 634:Src/main.c    **** 
 635:Src/main.c    **** 
 636:Src/main.c    **** //////////////////////////////////////////////////////
 637:Src/main.c    **** // Befehl verarbeiten
 638:Src/main.c    **** //////////////////////////////////////////////////////
 639:Src/main.c    **** int Run_CMD(unsigned char* command) {
 640:Src/main.c    **** 
 641:Src/main.c    **** 
 642:Src/main.c    ****   //////////////////////////////////////////////////////
 643:Src/main.c    ****   // 1. Befehl aufsplitten
 644:Src/main.c    ****   //////////////////////////////////////////////////////
 645:Src/main.c    ****   
 646:Src/main.c    ****   // count and replace " with \0
 647:Src/main.c    ****   uint32_t str_len = strlen((const char*)command);
 648:Src/main.c    ****   uint8_t quotation_marks_cnt = 0;
 649:Src/main.c    ****   char* arg_text = NULL;
 650:Src/main.c    ****   for (uint32_t i=0; i<str_len; i++) {
 651:Src/main.c    ****     if (command[i] == '\"') {
 652:Src/main.c    ****       command[i] = '\0';
 653:Src/main.c    ****       quotation_marks_cnt++;
 654:Src/main.c    **** 
 655:Src/main.c    ****       // set text arg pointer
 656:Src/main.c    ****       if (!arg_text) {
 657:Src/main.c    ****         arg_text = (char*)(command + i + 1);
 658:Src/main.c    ****       }
 659:Src/main.c    ****     }
 660:Src/main.c    ****     if (command[i] == '\n') { // delete newline
 661:Src/main.c    ****       command[i] = '\0';
 662:Src/main.c    ****     }
ARM GAS  /tmp/ccDqKevX.s 			page 20


 663:Src/main.c    ****   }
 664:Src/main.c    ****   if (quotation_marks_cnt != 0 && quotation_marks_cnt != 2) {
 665:Src/main.c    ****     return -1; // invalid command
 666:Src/main.c    ****   }
 667:Src/main.c    **** 
 668:Src/main.c    ****   // separate command into args
 669:Src/main.c    ****   char* args[max_cmd_args];
 670:Src/main.c    ****   args[0] = strtok((char*)command, " ");
 671:Src/main.c    ****   int f = 0;
 672:Src/main.c    ****   while (args[f]) {
 673:Src/main.c    ****     f++;
 674:Src/main.c    ****     if (f >= max_cmd_args) { break; }
 675:Src/main.c    ****     args[f] = strtok(NULL, " ");
 676:Src/main.c    ****   }
 677:Src/main.c    ****   if (f < max_cmd_args && !arg_text) {
 678:Src/main.c    ****     args[f] = NULL;
 679:Src/main.c    ****   }
 680:Src/main.c    **** 
 681:Src/main.c    ****   // append the text-string to args
 682:Src/main.c    ****   if (arg_text) {
 683:Src/main.c    ****     uint8_t pos_text = f;
 684:Src/main.c    ****     if (!(pos_text >= max_cmd_args)) {
 685:Src/main.c    ****       args[pos_text] = arg_text;
 686:Src/main.c    ****     }
 687:Src/main.c    ****     if (pos_text+1 < max_cmd_args) {
 688:Src/main.c    ****       args[pos_text+1] = NULL;
 689:Src/main.c    ****     }
 690:Src/main.c    ****   }
 691:Src/main.c    ****  
 692:Src/main.c    ****   // count args
 693:Src/main.c    ****   uint8_t arg_cnt = 0;
 694:Src/main.c    ****   while (args[arg_cnt] && arg_cnt < max_cmd_args) { arg_cnt++; }
 695:Src/main.c    ****   if (!arg_cnt) {
 696:Src/main.c    ****     return -1;
 697:Src/main.c    ****   }
 698:Src/main.c    **** 
 699:Src/main.c    ****   // Befehl bestimmen
 700:Src/main.c    ****   uint8_t current_cmd = CMD_ERROR;
 701:Src/main.c    ****   if        (arg_cnt == 4 && !strcmp(args[0], "SET_DOT")) {   current_cmd = CMD_SET_DOT;
 702:Src/main.c    ****   } else if (arg_cnt == 2 && !strcmp(args[0], "LIGHT")) {     current_cmd = CMD_LIGHT; 
 703:Src/main.c    ****   } else if (arg_cnt == 2 && !strcmp(args[0], "SET_ALL")) {   current_cmd = CMD_SET_ALL;
 704:Src/main.c    ****   } else if (arg_cnt == 2 && !strcmp(args[0], "SET_BUFF")) {  current_cmd = CMD_SET_BUFF;
 705:Src/main.c    ****   } else if (arg_cnt == 1 && !strcmp(args[0], "REFRESH")) {   current_cmd = CMD_REFRESH; 
 706:Src/main.c    ****   } else if (arg_cnt == 4 && !strcmp(args[0], "TEXT_TOP")) {  current_cmd = CMD_TEXT_TOP; 
 707:Src/main.c    ****   } else if (arg_cnt == 4 && !strcmp(args[0], "TEXT_CENTER")) {   current_cmd = CMD_TEXT_CENTER;
 708:Src/main.c    ****   } else if (arg_cnt == 4 && !strcmp(args[0], "TEXT_BOTTOM")) {   current_cmd = CMD_TEXT_BOTTOM;
 709:Src/main.c    ****   }
 710:Src/main.c    ****   if (current_cmd == CMD_ERROR) {
 711:Src/main.c    ****     return -1;
 712:Src/main.c    ****   }
 713:Src/main.c    **** 
 714:Src/main.c    **** 
 715:Src/main.c    **** 
 716:Src/main.c    ****   //////////////////////////////////////////////////////
 717:Src/main.c    ****   // 2. Befehl ausführen
 718:Src/main.c    ****   //////////////////////////////////////////////////////
 719:Src/main.c    ****   switch (current_cmd) {
ARM GAS  /tmp/ccDqKevX.s 			page 21


 720:Src/main.c    **** 
 721:Src/main.c    ****     // Lampe ein/aus
 722:Src/main.c    ****     // usage: LIGHT <1/0>
 723:Src/main.c    ****     case CMD_LIGHT:
 724:Src/main.c    ****       if (atoi(args[1])) {
 725:Src/main.c    ****         HAL_GPIO_WritePin(Lampe_GPIO_Port, Lampe_Pin, 1);
 726:Src/main.c    ****       } else {
 727:Src/main.c    ****         HAL_GPIO_WritePin(Lampe_GPIO_Port, Lampe_Pin, 0);
 728:Src/main.c    ****       }
 729:Src/main.c    ****       break;
 730:Src/main.c    **** 
 731:Src/main.c    ****     // Alle Dots setzen/löschen
 732:Src/main.c    ****     // usage: SET_ALL <1/0> (1=yellow, 0=black)
 733:Src/main.c    ****     case CMD_SET_ALL:
 734:Src/main.c    ****       if (atoi(args[1])) {
 735:Src/main.c    ****         start_yellow = 1;
 736:Src/main.c    ****       } else {
 737:Src/main.c    ****         start_black = 1;
 738:Src/main.c    ****       }
 739:Src/main.c    ****       break;
 740:Src/main.c    ****     
 741:Src/main.c    ****     // Alle Dots setzen/löschen (Zwischenspeicher)
 742:Src/main.c    ****     // usage: CMD_SET_BUFF <1/0> (1=yellow, 0=black)
 743:Src/main.c    ****     case CMD_SET_BUFF:
 744:Src/main.c    ****       if (atoi(args[1])) {
 745:Src/main.c    ****         for (int i=0; i<(28 * Panelanzahl); i++)
 746:Src/main.c    ****           dots[i] |= 0xFFFFFFFF;
 747:Src/main.c    ****       } else {
 748:Src/main.c    ****         for (int i=0; i<(28 * Panelanzahl); i++)
 749:Src/main.c    ****           dots[i] |= 0;
 750:Src/main.c    ****       }
 751:Src/main.c    ****       break;
 752:Src/main.c    **** 
 753:Src/main.c    ****     // Dot setzen/löschen (Zwischenspeicher)
 754:Src/main.c    ****     // usage: SET_DOT <x> <y> <1/0>
 755:Src/main.c    ****     case CMD_SET_DOT: {
 756:Src/main.c    ****       uint32_t x = atoi(args[1]);
 757:Src/main.c    ****       uint32_t y = atoi(args[2]);
 758:Src/main.c    ****       if (x > (Panelanzahl * 28) - 1) { break; }
 759:Src/main.c    ****       if (y > (20 - 1)) { break; }
 760:Src/main.c    ****       if (atoi(args[3])) {
 761:Src/main.c    **** 
 762:Src/main.c    ****         // Setzen
 763:Src/main.c    ****         dots[x] |= ((uint32_t)0x00000001 << y);
 764:Src/main.c    ****       
 765:Src/main.c    ****       } else {
 766:Src/main.c    **** 
 767:Src/main.c    ****         // Löschen
 768:Src/main.c    ****         dots[x] &= ~((uint32_t)0x00000001 << y);
 769:Src/main.c    ****       }
 770:Src/main.c    ****       break; }
 771:Src/main.c    ****     
 772:Src/main.c    ****     // Pixeldaten ausgeben (Refresh)
 773:Src/main.c    ****     // usage: REFRESH
 774:Src/main.c    ****     case CMD_REFRESH:
 775:Src/main.c    ****       start_refresh = 1;
 776:Src/main.c    ****       break;
ARM GAS  /tmp/ccDqKevX.s 			page 22


 777:Src/main.c    **** 
 778:Src/main.c    ****     // Text (mittig)
 779:Src/main.c    ****     // usage: TEXT_CENTER <Font_ID> <Position> "<Text>"
 780:Src/main.c    ****     // (Position: L=left, C=center, R=right, 0..83/111=offset von links)
 781:Src/main.c    ****     case CMD_TEXT_CENTER: {
 782:Src/main.c    **** 
 783:Src/main.c    ****       // Textlänge festlegen
 784:Src/main.c    ****       int text_laenge = strlen(args[3]);
 785:Src/main.c    ****       if (text_laenge <= 0) { break; }
 786:Src/main.c    **** 
 787:Src/main.c    ****       // Checke auf gültige Schriftart und Position
 788:Src/main.c    ****       int font = atoi(args[1]);
 789:Src/main.c    ****       if (font != 1 && font != 0)
 790:Src/main.c    ****         break;
 791:Src/main.c    ****       int offset_mode = -1;
 792:Src/main.c    ****       unsigned char position = atoi(args[2]);
 793:Src/main.c    ****       if (args[2][0] == 'L' || args[2][0] == 'C' || args[2][0] == 'R') {
 794:Src/main.c    ****         offset_mode = 0;
 795:Src/main.c    ****         position = args[2][0];
 796:Src/main.c    ****       } else {
 797:Src/main.c    ****         if (position < (28 * Panelanzahl))
 798:Src/main.c    ****           offset_mode = 1;
 799:Src/main.c    ****       }
 800:Src/main.c    ****       if (offset_mode < 0)
 801:Src/main.c    ****         break; // error
 802:Src/main.c    ****       
 803:Src/main.c    ****       // Text generieren
 804:Src/main.c    ****       for (int i=0; i<max_text_size; i++) { textbuffer_8px_UP[i] = 0; }
 805:Src/main.c    ****       int text_breite = generate_text((unsigned char*)args[3], textbuffer_8px_UP, 0, text_laenge, f
 806:Src/main.c    ****       if (!text_breite) { break; }
 807:Src/main.c    **** 
 808:Src/main.c    ****       // Mittlere Textreihe im Dot-Buffer löschen
 809:Src/main.c    ****       for (int i=0; i<(28 * Panelanzahl); i++)
 810:Src/main.c    ****         dots[i] = dots[i] & 0xFFFFF00F;
 811:Src/main.c    **** 
 812:Src/main.c    ****       // evtl. alles löschen
 813:Src/main.c    ****       if (yellow_test_or_UP_DOWN) {
 814:Src/main.c    ****         for (int i=0; i<(28 * Panelanzahl); i++) {
 815:Src/main.c    ****           dots[i] = 0; }
 816:Src/main.c    ****       }
 817:Src/main.c    **** 
 818:Src/main.c    ****       // Text in Dot-Buffer schreiben
 819:Src/main.c    ****       uint8_t offset = 0;
 820:Src/main.c    ****       if (text_breite < (28 * Panelanzahl)) {
 821:Src/main.c    ****         offset = ((Panelanzahl * 28)/2) - (text_breite/2);
 822:Src/main.c    ****       }
 823:Src/main.c    ****       if (text_breite >= (28 * Panelanzahl))
 824:Src/main.c    ****         text_breite = (28 * Panelanzahl);
 825:Src/main.c    ****       if (position == 'L') // linksbündig
 826:Src/main.c    ****         offset = 0;
 827:Src/main.c    ****       if (position == 'R') { // rechtsbündig
 828:Src/main.c    ****         if (text_breite <= (28 * Panelanzahl)) {
 829:Src/main.c    ****           offset = (28 * Panelanzahl) - text_breite;
 830:Src/main.c    ****         } else { offset = 0; }
 831:Src/main.c    ****       }
 832:Src/main.c    ****       if (offset_mode) // 0..83/111 - offset manuell
 833:Src/main.c    ****         offset = position;
ARM GAS  /tmp/ccDqKevX.s 			page 23


 834:Src/main.c    ****       for (int i=0; i<text_breite && i+offset<(28*Panelanzahl); i++) {
 835:Src/main.c    ****         dots[i+offset] |= (uint16_t)textbuffer_8px_UP[i] << 4;
 836:Src/main.c    ****       }
 837:Src/main.c    **** 
 838:Src/main.c    ****       // Schreibflags setzen
 839:Src/main.c    ****       if (!enable_manually_refresh) {
 840:Src/main.c    ****         if (yellow_test_or_UP_DOWN) {
 841:Src/main.c    ****           start_refresh = 1;
 842:Src/main.c    ****         } else {
 843:Src/main.c    ****           start_refresh_center = 1;
 844:Src/main.c    ****         }
 845:Src/main.c    ****       }
 846:Src/main.c    ****       yellow_test_or_center = 1;
 847:Src/main.c    ****       yellow_test_or_UP_DOWN = 0;
 848:Src/main.c    ****       break; }
 849:Src/main.c    **** 
 850:Src/main.c    ****     // Text (oben)
 851:Src/main.c    ****     // usage: TEXT_TOP <Font_ID> <Position 1/2/3> "<Text>"
 852:Src/main.c    ****     // (Position: 1=left, 2=center, 3=right)
 853:Src/main.c    ****     case CMD_TEXT_TOP: {
 854:Src/main.c    **** 
 855:Src/main.c    ****       // Textlänge festlegen
 856:Src/main.c    ****       int text_laenge = strlen(args[3]);
 857:Src/main.c    ****       if (text_laenge <= 0) { break; }
 858:Src/main.c    **** 
 859:Src/main.c    ****       // Checke auf gültige Schriftart und Position
 860:Src/main.c    ****       int font = atoi(args[1]);
 861:Src/main.c    ****       if (font != 1 && font != 0)
 862:Src/main.c    ****         break;
 863:Src/main.c    ****       int offset_mode = -1;
 864:Src/main.c    ****       unsigned char position = atoi(args[2]);
 865:Src/main.c    ****       if (args[2][0] == 'L' || args[2][0] == 'C' || args[2][0] == 'R') {
 866:Src/main.c    ****         offset_mode = 0;
 867:Src/main.c    ****         position = args[2][0];
 868:Src/main.c    ****       } else {
 869:Src/main.c    ****         if (position < (28 * Panelanzahl))
 870:Src/main.c    ****           offset_mode = 1;
 871:Src/main.c    ****       }
 872:Src/main.c    ****       if (offset_mode < 0)
 873:Src/main.c    ****         break; // error
 874:Src/main.c    ****       
 875:Src/main.c    ****       // Text generieren
 876:Src/main.c    ****       for (int i=0; i<max_text_size; i++) { textbuffer_8px_UP[i] = 0; }
 877:Src/main.c    ****       int text_breite = generate_text((unsigned char*)args[3], textbuffer_8px_UP, 0, text_laenge, f
 878:Src/main.c    ****       if (!text_breite) { break; }
 879:Src/main.c    **** 
 880:Src/main.c    ****       // Obere Textreihe im Dot-Buffer löschen
 881:Src/main.c    ****       for (int i=0; i<(28 * Panelanzahl); i++)
 882:Src/main.c    ****         dots[i] = dots[i] & 0xFFFFFF00;
 883:Src/main.c    ****       
 884:Src/main.c    ****       // evtl. alles löschen
 885:Src/main.c    ****       if (yellow_test_or_center) {
 886:Src/main.c    ****         for (int i=0; i<(28 * Panelanzahl); i++) {
 887:Src/main.c    ****           dots[i] = 0; }
 888:Src/main.c    ****       }
 889:Src/main.c    **** 
 890:Src/main.c    ****       // Text in Dot-Buffer schreiben
ARM GAS  /tmp/ccDqKevX.s 			page 24


 891:Src/main.c    ****       uint8_t offset = 0;
 892:Src/main.c    ****       if (text_breite < (28 * Panelanzahl)) {
 893:Src/main.c    ****         offset = ((Panelanzahl * 28)/2) - (text_breite/2);
 894:Src/main.c    ****       }
 895:Src/main.c    ****       if (text_breite >= (28 * Panelanzahl))
 896:Src/main.c    ****         text_breite = (28 * Panelanzahl);
 897:Src/main.c    ****       if (position == 'L') // linksbündig
 898:Src/main.c    ****         offset = 0;
 899:Src/main.c    ****       if (position == 'R') { // rechtsbündig
 900:Src/main.c    ****         if (text_breite <= (28 * Panelanzahl)) {
 901:Src/main.c    ****           offset = (28 * Panelanzahl) - text_breite;
 902:Src/main.c    ****         } else { offset = 0; }
 903:Src/main.c    ****       }
 904:Src/main.c    ****       if (offset_mode) // 0..83/111 - offset manuell
 905:Src/main.c    ****         offset = position;
 906:Src/main.c    ****       for (int i=0; i<text_breite && i+offset<(28*Panelanzahl); i++) {
 907:Src/main.c    ****         dots[i+offset] |= (uint16_t)textbuffer_8px_UP[i];
 908:Src/main.c    ****       }
 909:Src/main.c    **** 
 910:Src/main.c    ****       // Schreibflags setzen
 911:Src/main.c    ****       if (!enable_manually_refresh) {
 912:Src/main.c    ****         if (yellow_test_or_center) {
 913:Src/main.c    ****           start_refresh = 1;
 914:Src/main.c    ****         } else {
 915:Src/main.c    ****           start_refresh_UP = 1;
 916:Src/main.c    ****         }
 917:Src/main.c    ****       }
 918:Src/main.c    ****       yellow_test_or_center = 0;
 919:Src/main.c    ****       yellow_test_or_UP_DOWN = 1;
 920:Src/main.c    ****       break; }
 921:Src/main.c    **** 
 922:Src/main.c    ****     // Text (unten)
 923:Src/main.c    ****     // usage: TEXT_BOTTOM <Font_ID> <Position 1/2/3> "<Text>"
 924:Src/main.c    ****     // (Position: 1=left, 2=center, 3=right)
 925:Src/main.c    ****     case CMD_TEXT_BOTTOM: {
 926:Src/main.c    **** 
 927:Src/main.c    ****       // Textlänge festlegen
 928:Src/main.c    ****       int text_laenge = strlen(args[3]);
 929:Src/main.c    ****       if (text_laenge <= 0) { break; }
 930:Src/main.c    **** 
 931:Src/main.c    ****       // Checke auf gültige Schriftart und Position
 932:Src/main.c    ****       int font = atoi(args[1]);
 933:Src/main.c    ****       if (font != 1 && font != 0)
 934:Src/main.c    ****         break;
 935:Src/main.c    ****       int offset_mode = -1;
 936:Src/main.c    ****       unsigned char position = atoi(args[2]);
 937:Src/main.c    ****       if (args[2][0] == 'L' || args[2][0] == 'C' || args[2][0] == 'R') {
 938:Src/main.c    ****         offset_mode = 0;
 939:Src/main.c    ****         position = args[2][0];
 940:Src/main.c    ****       } else {
 941:Src/main.c    ****         if (position < (28 * Panelanzahl))
 942:Src/main.c    ****           offset_mode = 1;
 943:Src/main.c    ****       }
 944:Src/main.c    ****       if (offset_mode < 0)
 945:Src/main.c    ****         break; // error
 946:Src/main.c    ****       
 947:Src/main.c    ****       // Text generieren
ARM GAS  /tmp/ccDqKevX.s 			page 25


 948:Src/main.c    ****       for (int i=0; i<max_text_size; i++) { textbuffer_8px_UP[i] = 0; }
 949:Src/main.c    ****       int text_breite = generate_text((unsigned char*)args[3], textbuffer_8px_UP, 0, text_laenge, f
 950:Src/main.c    ****       if (!text_breite) { break; }
 951:Src/main.c    **** 
 952:Src/main.c    ****       // Unterste Textreihe im Dot-Buffer löschen
 953:Src/main.c    ****       for (int i=0; i<(28 * Panelanzahl); i++)
 954:Src/main.c    ****         dots[i] = dots[i] & 0xFFFF00FF;
 955:Src/main.c    ****       
 956:Src/main.c    ****       // evtl. alles löschen
 957:Src/main.c    ****       if (yellow_test_or_center) {
 958:Src/main.c    ****         for (int i=0; i<(28 * Panelanzahl); i++) {
 959:Src/main.c    ****           dots[i] = 0; }
 960:Src/main.c    ****       }
 961:Src/main.c    **** 
 962:Src/main.c    ****       // Text in Dot-Buffer schreiben
 963:Src/main.c    ****       uint8_t offset = 0;
 964:Src/main.c    ****       if (text_breite < (28 * Panelanzahl)) {
 965:Src/main.c    ****         offset = ((Panelanzahl * 28)/2) - (text_breite/2);
 966:Src/main.c    ****       }
 967:Src/main.c    ****       if (text_breite >= (28 * Panelanzahl))
 968:Src/main.c    ****         text_breite = (28 * Panelanzahl);
 969:Src/main.c    ****       if (position == 'L') // linksbündig
 970:Src/main.c    ****         offset = 0;
 971:Src/main.c    ****       if (position == 'R') { // rechtsbündig
 972:Src/main.c    ****         if (text_breite <= (28 * Panelanzahl)) {
 973:Src/main.c    ****           offset = (28 * Panelanzahl) - text_breite;
 974:Src/main.c    ****         } else { offset = 0; }
 975:Src/main.c    ****       }
 976:Src/main.c    ****       if (offset_mode) // 0..83/111 - offset manuell
 977:Src/main.c    ****         offset = position;
 978:Src/main.c    ****       for (int i=0; i<text_breite && i+offset<(28*Panelanzahl); i++) {
 979:Src/main.c    ****         dots[i+offset] |= (uint16_t)textbuffer_8px_UP[i] << 8;
 980:Src/main.c    ****       }
 981:Src/main.c    **** 
 982:Src/main.c    ****       // Schreibflags setzen
 983:Src/main.c    ****       if (!enable_manually_refresh) {
 984:Src/main.c    ****         if (yellow_test_or_center) {
 985:Src/main.c    ****           start_refresh = 1;
 986:Src/main.c    ****         } else {
 987:Src/main.c    ****           start_refresh_DOWN = 1;
 988:Src/main.c    ****         }
 989:Src/main.c    ****       }
 990:Src/main.c    ****       yellow_test_or_center = 0;
 991:Src/main.c    ****       yellow_test_or_UP_DOWN = 1;
 992:Src/main.c    ****       break; }
 993:Src/main.c    **** 
 994:Src/main.c    ****     default:
 995:Src/main.c    ****       // Default
 996:Src/main.c    ****       return -1;
 997:Src/main.c    ****       break;
 998:Src/main.c    ****   }
 999:Src/main.c    **** 
1000:Src/main.c    ****   return 0;
1001:Src/main.c    **** }
1002:Src/main.c    **** 
1003:Src/main.c    **** 
1004:Src/main.c    **** 
ARM GAS  /tmp/ccDqKevX.s 			page 26


1005:Src/main.c    **** //////////////////////////////////////////////////////
1006:Src/main.c    **** // Zeile aktivieren
1007:Src/main.c    **** //////////////////////////////////////////////////////
1008:Src/main.c    **** void Zeile_aktivieren(uint8_t Zeile, uint8_t SET_RESET) {
 385              		.loc 3 1008 57 is_stmt 1 view -0
 386              		.cfi_startproc
 387              		@ args = 0, pretend = 0, frame = 8
 388              		@ frame_needed = 0, uses_anonymous_args = 0
1009:Src/main.c    **** 
1010:Src/main.c    ****   // Variabelcheck
1011:Src/main.c    ****   if (Zeile >= 24 || SET_RESET > 1) { return; }
 389              		.loc 3 1011 3 view .LVU69
 390              		.loc 3 1011 6 is_stmt 0 view .LVU70
 391 0000 1728     		cmp	r0, #23
 392 0002 37D8     		bhi	.L40
1008:Src/main.c    **** 
 393              		.loc 3 1008 57 discriminator 2 view .LVU71
 394 0004 10B5     		push	{r4, lr}
 395              	.LCFI4:
 396              		.cfi_def_cfa_offset 8
 397              		.cfi_offset 4, -8
 398              		.cfi_offset 14, -4
 399 0006 82B0     		sub	sp, sp, #8
 400              	.LCFI5:
 401              		.cfi_def_cfa_offset 16
 402 0008 0C46     		mov	r4, r1
 403              		.loc 3 1011 19 discriminator 2 view .LVU72
 404 000a 0129     		cmp	r1, #1
 405 000c 01D9     		bls	.L43
 406              	.LVL15:
 407              	.L33:
1012:Src/main.c    **** 
1013:Src/main.c    ****   // Passendes Bit auf 1 setzen
1014:Src/main.c    ****   uint8_t array_pos = (Zeile / 8);
1015:Src/main.c    ****   uint8_t shift_data[3] = {0x00, 0x00, 0x00};
1016:Src/main.c    ****   uint8_t bit_pos = Zeile - (8 * array_pos);
1017:Src/main.c    ****   shift_data[2 - array_pos] = 0x01 << bit_pos;
1018:Src/main.c    **** 
1019:Src/main.c    ****   // Daten rausschieben
1020:Src/main.c    ****   HAL_SPI_Transmit(&hspi1, (uint8_t*)&shift_data, 3, 100);
1021:Src/main.c    **** 
1022:Src/main.c    ****   // SET oder RESET (UDN2981 oder ULN2803 aktivieren)
1023:Src/main.c    ****   if (SET_RESET) {
1024:Src/main.c    ****     HAL_GPIO_WritePin(Zeilen_SET_RESET_GPIO_Port, Zeilen_SET_RESET_Pin, 1);
1025:Src/main.c    ****   } else {
1026:Src/main.c    ****     HAL_GPIO_WritePin(Zeilen_SET_RESET_GPIO_Port, Zeilen_SET_RESET_Pin, 0);
1027:Src/main.c    ****   }
1028:Src/main.c    **** 
1029:Src/main.c    ****   // Latch Toggeln
1030:Src/main.c    ****   // (Anmerkung: OE wird extern über Timer gesteuert!)
1031:Src/main.c    ****   HAL_GPIO_WritePin(Zeilen_LATCH_GPIO_Port, Zeilen_LATCH_Pin, 1);
1032:Src/main.c    ****   HAL_GPIO_WritePin(Zeilen_LATCH_GPIO_Port, Zeilen_LATCH_Pin, 0);
1033:Src/main.c    **** }
 408              		.loc 3 1033 1 view .LVU73
 409 000e 02B0     		add	sp, sp, #8
 410              	.LCFI6:
 411              		.cfi_remember_state
ARM GAS  /tmp/ccDqKevX.s 			page 27


 412              		.cfi_def_cfa_offset 8
 413              		@ sp needed
 414 0010 10BD     		pop	{r4, pc}
 415              	.LVL16:
 416              	.L43:
 417              	.LCFI7:
 418              		.cfi_restore_state
1014:Src/main.c    ****   uint8_t shift_data[3] = {0x00, 0x00, 0x00};
 419              		.loc 3 1014 3 is_stmt 1 view .LVU74
1014:Src/main.c    ****   uint8_t shift_data[3] = {0x00, 0x00, 0x00};
 420              		.loc 3 1014 11 is_stmt 0 view .LVU75
 421 0012 C308     		lsrs	r3, r0, #3
 422              	.LVL17:
1015:Src/main.c    ****   uint8_t bit_pos = Zeile - (8 * array_pos);
 423              		.loc 3 1015 3 is_stmt 1 view .LVU76
1015:Src/main.c    ****   uint8_t bit_pos = Zeile - (8 * array_pos);
 424              		.loc 3 1015 11 is_stmt 0 view .LVU77
 425 0014 184A     		ldr	r2, .L44
 426 0016 1268     		ldr	r2, [r2]
 427 0018 ADF80420 		strh	r2, [sp, #4]	@ movhi
 428 001c 120C     		lsrs	r2, r2, #16
 429 001e 8DF80620 		strb	r2, [sp, #6]
1016:Src/main.c    ****   shift_data[2 - array_pos] = 0x01 << bit_pos;
 430              		.loc 3 1016 3 is_stmt 1 view .LVU78
 431              	.LVL18:
1017:Src/main.c    **** 
 432              		.loc 3 1017 3 view .LVU79
1017:Src/main.c    **** 
 433              		.loc 3 1017 36 is_stmt 0 view .LVU80
 434 0022 00F00700 		and	r0, r0, #7
 435              	.LVL19:
1017:Src/main.c    **** 
 436              		.loc 3 1017 36 view .LVU81
 437 0026 0122     		movs	r2, #1
 438 0028 02FA00F0 		lsl	r0, r2, r0
1017:Src/main.c    **** 
 439              		.loc 3 1017 16 view .LVU82
 440 002c C3F10203 		rsb	r3, r3, #2
 441              	.LVL20:
1017:Src/main.c    **** 
 442              		.loc 3 1017 29 view .LVU83
 443 0030 02AA     		add	r2, sp, #8
 444 0032 1344     		add	r3, r3, r2
 445 0034 03F8040C 		strb	r0, [r3, #-4]
1020:Src/main.c    **** 
 446              		.loc 3 1020 3 is_stmt 1 view .LVU84
 447 0038 6423     		movs	r3, #100
 448 003a 0322     		movs	r2, #3
 449 003c 01A9     		add	r1, sp, #4
 450              	.LVL21:
1020:Src/main.c    **** 
 451              		.loc 3 1020 3 is_stmt 0 view .LVU85
 452 003e 0F48     		ldr	r0, .L44+4
 453 0040 FFF7FEFF 		bl	HAL_SPI_Transmit
 454              	.LVL22:
1023:Src/main.c    ****     HAL_GPIO_WritePin(Zeilen_SET_RESET_GPIO_Port, Zeilen_SET_RESET_Pin, 1);
 455              		.loc 3 1023 3 is_stmt 1 view .LVU86
ARM GAS  /tmp/ccDqKevX.s 			page 28


1023:Src/main.c    ****     HAL_GPIO_WritePin(Zeilen_SET_RESET_GPIO_Port, Zeilen_SET_RESET_Pin, 1);
 456              		.loc 3 1023 6 is_stmt 0 view .LVU87
 457 0044 84B1     		cbz	r4, .L37
1024:Src/main.c    ****   } else {
 458              		.loc 3 1024 5 is_stmt 1 view .LVU88
 459 0046 0122     		movs	r2, #1
 460 0048 0821     		movs	r1, #8
 461 004a 0D48     		ldr	r0, .L44+8
 462 004c FFF7FEFF 		bl	HAL_GPIO_WritePin
 463              	.LVL23:
 464              	.L38:
1031:Src/main.c    ****   HAL_GPIO_WritePin(Zeilen_LATCH_GPIO_Port, Zeilen_LATCH_Pin, 0);
 465              		.loc 3 1031 3 view .LVU89
 466 0050 0B4C     		ldr	r4, .L44+8
 467 0052 0122     		movs	r2, #1
 468 0054 4021     		movs	r1, #64
 469 0056 2046     		mov	r0, r4
 470 0058 FFF7FEFF 		bl	HAL_GPIO_WritePin
 471              	.LVL24:
1032:Src/main.c    **** }
 472              		.loc 3 1032 3 view .LVU90
 473 005c 0022     		movs	r2, #0
 474 005e 4021     		movs	r1, #64
 475 0060 2046     		mov	r0, r4
 476 0062 FFF7FEFF 		bl	HAL_GPIO_WritePin
 477              	.LVL25:
 478 0066 D2E7     		b	.L33
 479              	.L37:
1026:Src/main.c    ****   }
 480              		.loc 3 1026 5 view .LVU91
 481 0068 0022     		movs	r2, #0
 482 006a 0821     		movs	r1, #8
 483 006c 0448     		ldr	r0, .L44+8
 484 006e FFF7FEFF 		bl	HAL_GPIO_WritePin
 485              	.LVL26:
 486 0072 EDE7     		b	.L38
 487              	.LVL27:
 488              	.L40:
 489              	.LCFI8:
 490              		.cfi_def_cfa_offset 0
 491              		.cfi_restore 4
 492              		.cfi_restore 14
1026:Src/main.c    ****   }
 493              		.loc 3 1026 5 is_stmt 0 view .LVU92
 494 0074 7047     		bx	lr
 495              	.L45:
 496 0076 00BF     		.align	2
 497              	.L44:
 498 0078 00000000 		.word	.LANCHOR10
 499 007c 00000000 		.word	hspi1
 500 0080 00080140 		.word	1073809408
 501              		.cfi_endproc
 502              	.LFE76:
 504              		.section	.text.Spalte_aktivieren,"ax",%progbits
 505              		.align	1
 506              		.global	Spalte_aktivieren
 507              		.syntax unified
ARM GAS  /tmp/ccDqKevX.s 			page 29


 508              		.thumb
 509              		.thumb_func
 510              		.fpu softvfp
 512              	Spalte_aktivieren:
 513              	.LVL28:
 514              	.LFB77:
1034:Src/main.c    **** 
1035:Src/main.c    **** 
1036:Src/main.c    **** 
1037:Src/main.c    **** //////////////////////////////////////////////////////
1038:Src/main.c    **** // Spalte aktivieren (Daten + Adressleitungen von FP2800)
1039:Src/main.c    **** //////////////////////////////////////////////////////
1040:Src/main.c    **** void Spalte_aktivieren(uint8_t Spalte, uint8_t SET_RESET) {
 515              		.loc 3 1040 59 is_stmt 1 view -0
 516              		.cfi_startproc
 517              		@ args = 0, pretend = 0, frame = 0
 518              		@ frame_needed = 0, uses_anonymous_args = 0
1041:Src/main.c    **** 
1042:Src/main.c    ****   // Variabelcheck
1043:Src/main.c    ****   if (Spalte >= 28) { return; }
 519              		.loc 3 1043 3 view .LVU94
 520              		.loc 3 1043 6 is_stmt 0 view .LVU95
 521 0000 1B28     		cmp	r0, #27
 522 0002 34D8     		bhi	.L52
1040:Src/main.c    **** 
 523              		.loc 3 1040 59 view .LVU96
 524 0004 10B5     		push	{r4, lr}
 525              	.LCFI9:
 526              		.cfi_def_cfa_offset 8
 527              		.cfi_offset 4, -8
 528              		.cfi_offset 14, -4
1044:Src/main.c    **** 
1045:Src/main.c    ****   // Spalte umwandeln nach FP2800 Wahrheitstabelle
1046:Src/main.c    ****   if (Paneltyp == 0) { Spalte = 27 - Spalte; }
 529              		.loc 3 1046 3 is_stmt 1 view .LVU97
 530              		.loc 3 1046 16 is_stmt 0 view .LVU98
 531 0006 1A4B     		ldr	r3, .L55
 532 0008 1B78     		ldrb	r3, [r3]	@ zero_extendqisi2
 533              		.loc 3 1046 6 view .LVU99
 534 000a 13B9     		cbnz	r3, .L48
 535              		.loc 3 1046 24 is_stmt 1 discriminator 1 view .LVU100
 536              		.loc 3 1046 31 is_stmt 0 discriminator 1 view .LVU101
 537 000c C0F11B00 		rsb	r0, r0, #27
 538              	.LVL29:
 539              		.loc 3 1046 31 discriminator 1 view .LVU102
 540 0010 C0B2     		uxtb	r0, r0
 541              	.LVL30:
 542              	.L48:
1047:Src/main.c    ****   uint8_t Spalte_FP2800 = Spalte + 1;
 543              		.loc 3 1047 3 is_stmt 1 view .LVU103
 544              		.loc 3 1047 11 is_stmt 0 view .LVU104
 545 0012 431C     		adds	r3, r0, #1
 546 0014 DBB2     		uxtb	r3, r3
 547              	.LVL31:
1048:Src/main.c    ****   if (Spalte > 6) {
 548              		.loc 3 1048 3 is_stmt 1 view .LVU105
 549              		.loc 3 1048 6 is_stmt 0 view .LVU106
ARM GAS  /tmp/ccDqKevX.s 			page 30


 550 0016 0628     		cmp	r0, #6
 551 0018 09D9     		bls	.L49
1049:Src/main.c    ****     Spalte_FP2800++;
 552              		.loc 3 1049 5 is_stmt 1 view .LVU107
 553              		.loc 3 1049 18 is_stmt 0 view .LVU108
 554 001a 831C     		adds	r3, r0, #2
 555              	.LVL32:
 556              		.loc 3 1049 18 view .LVU109
 557 001c DBB2     		uxtb	r3, r3
 558              	.LVL33:
1050:Src/main.c    ****     if (Spalte > 13) {
 559              		.loc 3 1050 5 is_stmt 1 view .LVU110
 560              		.loc 3 1050 8 is_stmt 0 view .LVU111
 561 001e 0D28     		cmp	r0, #13
 562 0020 05D9     		bls	.L49
1051:Src/main.c    ****       Spalte_FP2800++;
 563              		.loc 3 1051 7 is_stmt 1 view .LVU112
 564              		.loc 3 1051 20 is_stmt 0 view .LVU113
 565 0022 C31C     		adds	r3, r0, #3
 566              	.LVL34:
 567              		.loc 3 1051 20 view .LVU114
 568 0024 DBB2     		uxtb	r3, r3
 569              	.LVL35:
1052:Src/main.c    ****       if (Spalte > 20) {
 570              		.loc 3 1052 7 is_stmt 1 view .LVU115
 571              		.loc 3 1052 10 is_stmt 0 view .LVU116
 572 0026 1428     		cmp	r0, #20
 573 0028 01D9     		bls	.L49
1053:Src/main.c    ****         Spalte_FP2800++;
 574              		.loc 3 1053 9 is_stmt 1 view .LVU117
 575              		.loc 3 1053 22 is_stmt 0 view .LVU118
 576 002a 0430     		adds	r0, r0, #4
 577              	.LVL36:
 578              		.loc 3 1053 22 view .LVU119
 579 002c C3B2     		uxtb	r3, r0
 580              	.LVL37:
 581              	.L49:
1054:Src/main.c    ****       }
1055:Src/main.c    ****     }
1056:Src/main.c    ****   }
1057:Src/main.c    **** 
1058:Src/main.c    ****   // Adressbits in Zwischenspeicher schreiben
1059:Src/main.c    ****   hspi2_data[1] = hspi2_data[1] & 0xC0;
 582              		.loc 3 1059 3 is_stmt 1 view .LVU120
 583              		.loc 3 1059 29 is_stmt 0 view .LVU121
 584 002e 114C     		ldr	r4, .L55+4
 585 0030 6078     		ldrb	r0, [r4, #1]	@ zero_extendqisi2
 586              		.loc 3 1059 33 view .LVU122
 587 0032 00F0C002 		and	r2, r0, #192
1060:Src/main.c    ****   Spalte_FP2800 = Spalte_FP2800 << 1;
 588              		.loc 3 1060 3 is_stmt 1 view .LVU123
 589              		.loc 3 1060 17 is_stmt 0 view .LVU124
 590 0036 5800     		lsls	r0, r3, #1
 591 0038 C0B2     		uxtb	r0, r0
 592              	.LVL38:
1061:Src/main.c    ****   hspi2_data[1] = hspi2_data[1] | Spalte_FP2800;
 593              		.loc 3 1061 3 is_stmt 1 view .LVU125
ARM GAS  /tmp/ccDqKevX.s 			page 31


 594              		.loc 3 1061 17 is_stmt 0 view .LVU126
 595 003a 1043     		orrs	r0, r0, r2
 596              	.LVL39:
 597              		.loc 3 1061 17 view .LVU127
 598 003c 6070     		strb	r0, [r4, #1]
1062:Src/main.c    **** 
1063:Src/main.c    ****   // Datenbit in Zwischenspeicher schreiben
1064:Src/main.c    ****   if (SET_RESET) {
 599              		.loc 3 1064 3 is_stmt 1 view .LVU128
 600              		.loc 3 1064 6 is_stmt 0 view .LVU129
 601 003e 11B1     		cbz	r1, .L50
1065:Src/main.c    ****     hspi2_data[1] = hspi2_data[1] | 0x01;
 602              		.loc 3 1065 5 is_stmt 1 view .LVU130
 603              		.loc 3 1065 19 is_stmt 0 view .LVU131
 604 0040 40F00100 		orr	r0, r0, #1
 605 0044 6070     		strb	r0, [r4, #1]
 606              	.L50:
1066:Src/main.c    ****   }
1067:Src/main.c    **** 
1068:Src/main.c    ****   // Daten rausschieben
1069:Src/main.c    ****   HAL_SPI_Transmit(&hspi2, (uint8_t*)&hspi2_data, 2, 100);  
 607              		.loc 3 1069 3 is_stmt 1 view .LVU132
 608 0046 6423     		movs	r3, #100
 609              	.LVL40:
 610              		.loc 3 1069 3 is_stmt 0 view .LVU133
 611 0048 0222     		movs	r2, #2
 612 004a 0A49     		ldr	r1, .L55+4
 613              	.LVL41:
 614              		.loc 3 1069 3 view .LVU134
 615 004c 0A48     		ldr	r0, .L55+8
 616 004e FFF7FEFF 		bl	HAL_SPI_Transmit
 617              	.LVL42:
1070:Src/main.c    **** 
1071:Src/main.c    ****   // Latch Toggeln
1072:Src/main.c    ****   HAL_GPIO_WritePin(Spalten_LATCH_GPIO_Port, Spalten_LATCH_Pin, 1);
 618              		.loc 3 1072 3 is_stmt 1 view .LVU135
 619 0052 0A4C     		ldr	r4, .L55+12
 620 0054 0122     		movs	r2, #1
 621 0056 4FF48041 		mov	r1, #16384
 622 005a 2046     		mov	r0, r4
 623 005c FFF7FEFF 		bl	HAL_GPIO_WritePin
 624              	.LVL43:
1073:Src/main.c    ****   HAL_GPIO_WritePin(Spalten_LATCH_GPIO_Port, Spalten_LATCH_Pin, 0);
 625              		.loc 3 1073 3 view .LVU136
 626 0060 0022     		movs	r2, #0
 627 0062 4FF48041 		mov	r1, #16384
 628 0066 2046     		mov	r0, r4
 629 0068 FFF7FEFF 		bl	HAL_GPIO_WritePin
 630              	.LVL44:
1074:Src/main.c    **** }
 631              		.loc 3 1074 1 is_stmt 0 view .LVU137
 632 006c 10BD     		pop	{r4, pc}
 633              	.LVL45:
 634              	.L52:
 635              	.LCFI10:
 636              		.cfi_def_cfa_offset 0
 637              		.cfi_restore 4
ARM GAS  /tmp/ccDqKevX.s 			page 32


 638              		.cfi_restore 14
 639              		.loc 3 1074 1 view .LVU138
 640 006e 7047     		bx	lr
 641              	.L56:
 642              		.align	2
 643              	.L55:
 644 0070 00000000 		.word	Paneltyp
 645 0074 00000000 		.word	.LANCHOR11
 646 0078 00000000 		.word	hspi2
 647 007c 000C0140 		.word	1073810432
 648              		.cfi_endproc
 649              	.LFE77:
 651              		.section	.text.Modul_aktivieren,"ax",%progbits
 652              		.align	1
 653              		.global	Modul_aktivieren
 654              		.syntax unified
 655              		.thumb
 656              		.thumb_func
 657              		.fpu softvfp
 659              	Modul_aktivieren:
 660              	.LVL46:
 661              	.LFB78:
1075:Src/main.c    **** 
1076:Src/main.c    **** 
1077:Src/main.c    **** 
1078:Src/main.c    **** //////////////////////////////////////////////////////
1079:Src/main.c    **** // Modul aktivieren (Enable von FP2800)
1080:Src/main.c    **** //////////////////////////////////////////////////////
1081:Src/main.c    **** void Modul_aktivieren(uint8_t Modul, uint8_t ON_OFF) {
 662              		.loc 3 1081 54 is_stmt 1 view -0
 663              		.cfi_startproc
 664              		@ args = 0, pretend = 0, frame = 0
 665              		@ frame_needed = 0, uses_anonymous_args = 0
 666              		.loc 3 1081 54 is_stmt 0 view .LVU140
 667 0000 38B5     		push	{r3, r4, r5, lr}
 668              	.LCFI11:
 669              		.cfi_def_cfa_offset 16
 670              		.cfi_offset 3, -16
 671              		.cfi_offset 4, -12
 672              		.cfi_offset 5, -8
 673              		.cfi_offset 14, -4
1082:Src/main.c    **** 
1083:Src/main.c    ****   // LAWO
1084:Src/main.c    ****   if (Paneltyp == 0) {
 674              		.loc 3 1084 3 is_stmt 1 view .LVU141
 675              		.loc 3 1084 16 is_stmt 0 view .LVU142
 676 0002 344B     		ldr	r3, .L70
 677 0004 1A78     		ldrb	r2, [r3]	@ zero_extendqisi2
 678              		.loc 3 1084 6 view .LVU143
 679 0006 DAB9     		cbnz	r2, .L58
1085:Src/main.c    **** 
1086:Src/main.c    ****     // Variabelcheck
1087:Src/main.c    ****     if (Modul >= 4) { return; }
 680              		.loc 3 1087 5 is_stmt 1 view .LVU144
 681              		.loc 3 1087 8 is_stmt 0 view .LVU145
 682 0008 0328     		cmp	r0, #3
 683 000a 4CD8     		bhi	.L57
ARM GAS  /tmp/ccDqKevX.s 			page 33


1088:Src/main.c    **** 
1089:Src/main.c    ****     // Alte Modulbits löschen
1090:Src/main.c    ****     hspi2_data[1] = hspi2_data[1] & 0x3F;
 684              		.loc 3 1090 5 is_stmt 1 view .LVU146
 685              		.loc 3 1090 31 is_stmt 0 view .LVU147
 686 000c 324B     		ldr	r3, .L70+4
 687 000e 5D78     		ldrb	r5, [r3, #1]	@ zero_extendqisi2
 688              		.loc 3 1090 35 view .LVU148
 689 0010 05F03F05 		and	r5, r5, #63
 690              		.loc 3 1090 19 view .LVU149
 691 0014 5D70     		strb	r5, [r3, #1]
1091:Src/main.c    ****     hspi2_data[0] = hspi2_data[0] & 0xC0;
 692              		.loc 3 1091 5 is_stmt 1 view .LVU150
 693              		.loc 3 1091 31 is_stmt 0 view .LVU151
 694 0016 1C78     		ldrb	r4, [r3]	@ zero_extendqisi2
 695              		.loc 3 1091 35 view .LVU152
 696 0018 04F0C004 		and	r4, r4, #192
 697              		.loc 3 1091 19 view .LVU153
 698 001c 1C70     		strb	r4, [r3]
1092:Src/main.c    **** 
1093:Src/main.c    ****     // Modulbit setzen
1094:Src/main.c    ****     if (Paneltyp == 0) { Modul = (Panelanzahl - 1) - Modul; }
 699              		.loc 3 1094 5 is_stmt 1 view .LVU154
 700              		.loc 3 1094 26 view .LVU155
 701              		.loc 3 1094 52 is_stmt 0 view .LVU156
 702 001e 2F4B     		ldr	r3, .L70+8
 703 0020 1B78     		ldrb	r3, [r3]	@ zero_extendqisi2
 704 0022 181A     		subs	r0, r3, r0
 705              	.LVL47:
 706              		.loc 3 1094 52 view .LVU157
 707 0024 C0B2     		uxtb	r0, r0
 708              		.loc 3 1094 32 view .LVU158
 709 0026 0138     		subs	r0, r0, #1
 710 0028 C0B2     		uxtb	r0, r0
 711              	.LVL48:
1095:Src/main.c    ****     if (ON_OFF) {
 712              		.loc 3 1095 5 is_stmt 1 view .LVU159
 713              		.loc 3 1095 8 is_stmt 0 view .LVU160
 714 002a 49B1     		cbz	r1, .L58
1096:Src/main.c    ****       switch (Modul) {
 715              		.loc 3 1096 7 is_stmt 1 view .LVU161
 716 002c 0328     		cmp	r0, #3
 717 002e 07D8     		bhi	.L58
 718 0030 DFE800F0 		tbb	[pc, r0]
 719              	.L61:
 720 0034 02       		.byte	(.L64-.L61)/2
 721 0035 44       		.byte	(.L63-.L61)/2
 722 0036 3F       		.byte	(.L62-.L61)/2
 723 0037 3A       		.byte	(.L60-.L61)/2
 724              		.p2align 1
 725              	.L64:
1097:Src/main.c    ****         case 0: hspi2_data[1] = hspi2_data[1] | 0x40; break;
 726              		.loc 3 1097 17 view .LVU162
 727              		.loc 3 1097 31 is_stmt 0 view .LVU163
 728 0038 45F04005 		orr	r5, r5, #64
 729 003c 264B     		ldr	r3, .L70+4
 730 003e 5D70     		strb	r5, [r3, #1]
ARM GAS  /tmp/ccDqKevX.s 			page 34


 731              		.loc 3 1097 55 is_stmt 1 view .LVU164
 732              	.L58:
1098:Src/main.c    ****         case 3: hspi2_data[1] = hspi2_data[1] | 0x80; break;
1099:Src/main.c    ****         case 2: hspi2_data[0] = hspi2_data[0] | 0x01; break;
1100:Src/main.c    ****         case 1: hspi2_data[0] = hspi2_data[0] | 0x02; break;
1101:Src/main.c    ****         default: break;
1102:Src/main.c    ****       }
1103:Src/main.c    ****     }
1104:Src/main.c    ****   }
1105:Src/main.c    **** 
1106:Src/main.c    ****   // BROSE
1107:Src/main.c    ****   if (Paneltyp == 1) {
 733              		.loc 3 1107 3 view .LVU165
 734              		.loc 3 1107 6 is_stmt 0 view .LVU166
 735 0040 012A     		cmp	r2, #1
 736 0042 1DD1     		bne	.L65
1108:Src/main.c    **** 
1109:Src/main.c    ****     // Variabelcheck
1110:Src/main.c    ****     if (Modul >= 8) { return; }
 737              		.loc 3 1110 5 is_stmt 1 view .LVU167
 738              		.loc 3 1110 8 is_stmt 0 view .LVU168
 739 0044 0728     		cmp	r0, #7
 740 0046 2ED8     		bhi	.L57
1111:Src/main.c    **** 
1112:Src/main.c    ****     // Alle Bits auf 1 setzten
1113:Src/main.c    ****     hspi2_data[1] = hspi2_data[1] | 0xC0;
 741              		.loc 3 1113 5 is_stmt 1 view .LVU169
 742              		.loc 3 1113 31 is_stmt 0 view .LVU170
 743 0048 234B     		ldr	r3, .L70+4
 744 004a 5C78     		ldrb	r4, [r3, #1]	@ zero_extendqisi2
 745              		.loc 3 1113 19 view .LVU171
 746 004c 44F0C004 		orr	r4, r4, #192
 747 0050 5C70     		strb	r4, [r3, #1]
1114:Src/main.c    ****     hspi2_data[0] = hspi2_data[0] | 0x3F;
 748              		.loc 3 1114 5 is_stmt 1 view .LVU172
 749              		.loc 3 1114 31 is_stmt 0 view .LVU173
 750 0052 1A78     		ldrb	r2, [r3]	@ zero_extendqisi2
 751              		.loc 3 1114 19 view .LVU174
 752 0054 42F03F02 		orr	r2, r2, #63
 753 0058 1A70     		strb	r2, [r3]
1115:Src/main.c    **** 
1116:Src/main.c    ****     // Modulbit löschen
1117:Src/main.c    ****     if (ON_OFF) {
 754              		.loc 3 1117 5 is_stmt 1 view .LVU175
 755              		.loc 3 1117 8 is_stmt 0 view .LVU176
 756 005a 89B1     		cbz	r1, .L65
1118:Src/main.c    ****       if (Modul == 0) { hspi2_data[1] = hspi2_data[1] & 0xBF; }
 757              		.loc 3 1118 7 is_stmt 1 view .LVU177
 758              		.loc 3 1118 10 is_stmt 0 view .LVU178
 759 005c 10B9     		cbnz	r0, .L66
 760              		.loc 3 1118 25 is_stmt 1 discriminator 1 view .LVU179
 761              		.loc 3 1118 55 is_stmt 0 discriminator 1 view .LVU180
 762 005e 04F0BF04 		and	r4, r4, #191
 763              		.loc 3 1118 39 discriminator 1 view .LVU181
 764 0062 5C70     		strb	r4, [r3, #1]
 765              	.L66:
1119:Src/main.c    ****       if (Modul == 1) { hspi2_data[1] = hspi2_data[1] & 0x7F; }
ARM GAS  /tmp/ccDqKevX.s 			page 35


 766              		.loc 3 1119 7 is_stmt 1 view .LVU182
 767              		.loc 3 1119 10 is_stmt 0 view .LVU183
 768 0064 0128     		cmp	r0, #1
 769 0066 2ED0     		beq	.L69
 770              	.LVL49:
 771              	.L67:
1120:Src/main.c    ****       if (Modul >= 2) {
 772              		.loc 3 1120 7 is_stmt 1 view .LVU184
 773              		.loc 3 1120 10 is_stmt 0 view .LVU185
 774 0068 0128     		cmp	r0, #1
 775 006a 09D9     		bls	.L65
 776              	.LBB3:
1121:Src/main.c    ****         Modul = Modul - 2;
 777              		.loc 3 1121 9 is_stmt 1 view .LVU186
 778              		.loc 3 1121 15 is_stmt 0 view .LVU187
 779 006c 0238     		subs	r0, r0, #2
 780              	.LVL50:
 781              		.loc 3 1121 15 view .LVU188
 782 006e C0B2     		uxtb	r0, r0
 783              	.LVL51:
1122:Src/main.c    ****         uint8_t bit = 0x01 << Modul;
 784              		.loc 3 1122 9 is_stmt 1 view .LVU189
 785              		.loc 3 1122 28 is_stmt 0 view .LVU190
 786 0070 0123     		movs	r3, #1
 787 0072 03FA00F0 		lsl	r0, r3, r0
 788              	.LVL52:
 789              		.loc 3 1122 17 view .LVU191
 790 0076 C0B2     		uxtb	r0, r0
 791              	.LVL53:
1123:Src/main.c    ****         bit = ~bit;
 792              		.loc 3 1123 9 is_stmt 1 view .LVU192
1124:Src/main.c    ****         hspi2_data[0] = hspi2_data[0] & bit;
 793              		.loc 3 1124 9 view .LVU193
 794              		.loc 3 1124 23 is_stmt 0 view .LVU194
 795 0078 22EA0002 		bic	r2, r2, r0
 796 007c 164B     		ldr	r3, .L70+4
 797 007e 1A70     		strb	r2, [r3]
 798              	.LVL54:
 799              	.L65:
 800              		.loc 3 1124 23 view .LVU195
 801              	.LBE3:
1125:Src/main.c    ****       }
1126:Src/main.c    ****     }
1127:Src/main.c    ****   }
1128:Src/main.c    **** 
1129:Src/main.c    ****   // Daten rausschieben
1130:Src/main.c    ****   HAL_SPI_Transmit(&hspi2, (uint8_t*)&hspi2_data, 2, 100);  
 802              		.loc 3 1130 3 is_stmt 1 view .LVU196
 803 0080 6423     		movs	r3, #100
 804 0082 0222     		movs	r2, #2
 805 0084 1449     		ldr	r1, .L70+4
 806 0086 1648     		ldr	r0, .L70+12
 807 0088 FFF7FEFF 		bl	HAL_SPI_Transmit
 808              	.LVL55:
1131:Src/main.c    **** 
1132:Src/main.c    ****   // Latch Toggeln
1133:Src/main.c    ****   HAL_GPIO_WritePin(Spalten_LATCH_GPIO_Port, Spalten_LATCH_Pin, 1);
ARM GAS  /tmp/ccDqKevX.s 			page 36


 809              		.loc 3 1133 3 view .LVU197
 810 008c 154C     		ldr	r4, .L70+16
 811 008e 0122     		movs	r2, #1
 812 0090 4FF48041 		mov	r1, #16384
 813 0094 2046     		mov	r0, r4
 814 0096 FFF7FEFF 		bl	HAL_GPIO_WritePin
 815              	.LVL56:
1134:Src/main.c    ****   HAL_GPIO_WritePin(Spalten_LATCH_GPIO_Port, Spalten_LATCH_Pin, 0);
 816              		.loc 3 1134 3 view .LVU198
 817 009a 0022     		movs	r2, #0
 818 009c 4FF48041 		mov	r1, #16384
 819 00a0 2046     		mov	r0, r4
 820 00a2 FFF7FEFF 		bl	HAL_GPIO_WritePin
 821              	.LVL57:
 822              	.L57:
1135:Src/main.c    **** }
 823              		.loc 3 1135 1 is_stmt 0 view .LVU199
 824 00a6 38BD     		pop	{r3, r4, r5, pc}
 825              	.LVL58:
 826              	.L60:
1098:Src/main.c    ****         case 2: hspi2_data[0] = hspi2_data[0] | 0x01; break;
 827              		.loc 3 1098 17 is_stmt 1 view .LVU200
1098:Src/main.c    ****         case 2: hspi2_data[0] = hspi2_data[0] | 0x01; break;
 828              		.loc 3 1098 31 is_stmt 0 view .LVU201
 829 00a8 65F07F05 		orn	r5, r5, #127
 830 00ac 0A4B     		ldr	r3, .L70+4
 831 00ae 5D70     		strb	r5, [r3, #1]
1098:Src/main.c    ****         case 2: hspi2_data[0] = hspi2_data[0] | 0x01; break;
 832              		.loc 3 1098 55 is_stmt 1 view .LVU202
1098:Src/main.c    ****         case 2: hspi2_data[0] = hspi2_data[0] | 0x01; break;
 833              		.loc 3 1098 9 is_stmt 0 view .LVU203
 834 00b0 C6E7     		b	.L58
 835              	.L62:
1099:Src/main.c    ****         case 1: hspi2_data[0] = hspi2_data[0] | 0x02; break;
 836              		.loc 3 1099 17 is_stmt 1 view .LVU204
1099:Src/main.c    ****         case 1: hspi2_data[0] = hspi2_data[0] | 0x02; break;
 837              		.loc 3 1099 31 is_stmt 0 view .LVU205
 838 00b2 44F00104 		orr	r4, r4, #1
 839 00b6 084B     		ldr	r3, .L70+4
 840 00b8 1C70     		strb	r4, [r3]
1099:Src/main.c    ****         case 1: hspi2_data[0] = hspi2_data[0] | 0x02; break;
 841              		.loc 3 1099 55 is_stmt 1 view .LVU206
1099:Src/main.c    ****         case 1: hspi2_data[0] = hspi2_data[0] | 0x02; break;
 842              		.loc 3 1099 9 is_stmt 0 view .LVU207
 843 00ba C1E7     		b	.L58
 844              	.L63:
1100:Src/main.c    ****         default: break;
 845              		.loc 3 1100 17 is_stmt 1 view .LVU208
1100:Src/main.c    ****         default: break;
 846              		.loc 3 1100 31 is_stmt 0 view .LVU209
 847 00bc 44F00204 		orr	r4, r4, #2
 848 00c0 054B     		ldr	r3, .L70+4
 849 00c2 1C70     		strb	r4, [r3]
1100:Src/main.c    ****         default: break;
 850              		.loc 3 1100 55 is_stmt 1 view .LVU210
1100:Src/main.c    ****         default: break;
 851              		.loc 3 1100 9 is_stmt 0 view .LVU211
ARM GAS  /tmp/ccDqKevX.s 			page 37


 852 00c4 BCE7     		b	.L58
 853              	.L69:
1119:Src/main.c    ****       if (Modul >= 2) {
 854              		.loc 3 1119 25 is_stmt 1 discriminator 1 view .LVU212
1119:Src/main.c    ****       if (Modul >= 2) {
 855              		.loc 3 1119 51 is_stmt 0 discriminator 1 view .LVU213
 856 00c6 0449     		ldr	r1, .L70+4
 857              	.LVL59:
1119:Src/main.c    ****       if (Modul >= 2) {
 858              		.loc 3 1119 51 discriminator 1 view .LVU214
 859 00c8 4B78     		ldrb	r3, [r1, #1]	@ zero_extendqisi2
1119:Src/main.c    ****       if (Modul >= 2) {
 860              		.loc 3 1119 55 discriminator 1 view .LVU215
 861 00ca 03F07F03 		and	r3, r3, #127
1119:Src/main.c    ****       if (Modul >= 2) {
 862              		.loc 3 1119 39 discriminator 1 view .LVU216
 863 00ce 4B70     		strb	r3, [r1, #1]
 864 00d0 CAE7     		b	.L67
 865              	.L71:
 866 00d2 00BF     		.align	2
 867              	.L70:
 868 00d4 00000000 		.word	Paneltyp
 869 00d8 00000000 		.word	.LANCHOR11
 870 00dc 00000000 		.word	Panelanzahl
 871 00e0 00000000 		.word	hspi2
 872 00e4 000C0140 		.word	1073810432
 873              		.cfi_endproc
 874              	.LFE78:
 876              		.section	.text.generate_text,"ax",%progbits
 877              		.align	1
 878              		.global	generate_text
 879              		.syntax unified
 880              		.thumb
 881              		.thumb_func
 882              		.fpu softvfp
 884              	generate_text:
 885              	.LVL60:
 886              	.LFB80:
1136:Src/main.c    **** 
1137:Src/main.c    **** 
1138:Src/main.c    **** 
1139:Src/main.c    **** //////////////////////////////////////////////////////
1140:Src/main.c    **** // Dots schreiben
1141:Src/main.c    **** //////////////////////////////////////////////////////
1142:Src/main.c    **** void Write_Dots(uint8_t from_x, uint8_t to_x, uint8_t from_y, uint8_t to_y) {
1143:Src/main.c    **** 
1144:Src/main.c    ****   // Status LED ein
1145:Src/main.c    ****   HAL_GPIO_WritePin(LED_Status_GPIO_Port, LED_Status_Pin,  1);
1146:Src/main.c    **** 
1147:Src/main.c    ****   // Parameter bestimmen
1148:Src/main.c    ****   uint8_t x_max = Panelanzahl * 28;
1149:Src/main.c    ****   uint8_t y_max = 0;
1150:Src/main.c    ****   if (Paneltyp == LAWO)  { y_max = 16; }  // Lawo
1151:Src/main.c    ****   if (Paneltyp == BROSE) { y_max = 19; }  // Brose
1152:Src/main.c    **** 
1153:Src/main.c    ****   // Variabelcheck
1154:Src/main.c    ****   if (from_x >= x_max || to_x >= x_max || from_x > to_x) { return; }
ARM GAS  /tmp/ccDqKevX.s 			page 38


1155:Src/main.c    ****   if (from_y >= y_max || to_y >= y_max || from_y > to_y) { return; }
1156:Src/main.c    **** 
1157:Src/main.c    ****   // Spalten und Zeilen abarbeiten
1158:Src/main.c    ****   for (uint8_t Spalte = from_x; Spalte <= to_x; Spalte++) {
1159:Src/main.c    ****     for (uint8_t Zeile = from_y; Zeile <= to_y; Zeile++) {
1160:Src/main.c    **** 
1161:Src/main.c    ****       // Bit maskieren
1162:Src/main.c    ****       uint8_t skip = 0;
1163:Src/main.c    ****       uint8_t dot = 0;
1164:Src/main.c    ****       uint32_t current_data = dots[Spalte] & (0x00000001 << Zeile);
1165:Src/main.c    ****       if (current_data) { dot = 1; }
1166:Src/main.c    **** 
1167:Src/main.c    ****       // Checken ob Dot überhaupt erneut gekippt werden muss
1168:Src/main.c    ****       if (enable_fast_refresh) {
1169:Src/main.c    ****         skip |= bit_not_changed(Spalte, Zeile);
1170:Src/main.c    ****       }
1171:Src/main.c    ****       
1172:Src/main.c    ****       // Flip Vorgang ausführen
1173:Src/main.c    ****       if (!skip) {
1174:Src/main.c    **** 
1175:Src/main.c    ****         // Spalten + Zeilentreiber einstellen
1176:Src/main.c    ****         Spalte_aktivieren(Spalte - ((Spalte/28)*28), !dot);
1177:Src/main.c    ****         Zeile_aktivieren(Zeile, dot);
1178:Src/main.c    **** 
1179:Src/main.c    ****         // Spalten + Zeilentreiber einschalten
1180:Src/main.c    ****         Modul_aktivieren(Spalte/28, 1);
1181:Src/main.c    ****         HAL_GPIO_WritePin(Zeilen_OE_GPIO_Port, Zeilen_OE_Pin, 1);
1182:Src/main.c    **** 
1183:Src/main.c    ****         // 1ms Delay
1184:Src/main.c    ****         delay_us(1000);
1185:Src/main.c    **** 
1186:Src/main.c    ****         // Spalten + Zeilentreiber ausschalten
1187:Src/main.c    ****         HAL_GPIO_WritePin(Zeilen_OE_GPIO_Port, Zeilen_OE_Pin, 1);
1188:Src/main.c    ****         Modul_aktivieren(Spalte/28, 0);
1189:Src/main.c    ****       }
1190:Src/main.c    ****     }
1191:Src/main.c    ****   }
1192:Src/main.c    **** 
1193:Src/main.c    ****   // Status LED aus
1194:Src/main.c    ****   HAL_GPIO_WritePin(LED_Status_GPIO_Port, LED_Status_Pin,  0);
1195:Src/main.c    **** }
1196:Src/main.c    **** 
1197:Src/main.c    **** 
1198:Src/main.c    **** 
1199:Src/main.c    **** //////////////////////////////////////////////////////
1200:Src/main.c    **** // Text generieren (8px Höhe)
1201:Src/main.c    **** //////////////////////////////////////////////////////
1202:Src/main.c    **** // text_selector:
1203:Src/main.c    **** // '0' = fnt8x8.h
1204:Src/main.c    **** // '1' = 6x8_vertikal_LSB_1.h
1205:Src/main.c    **** int generate_text(uint8_t* text_in, uint8_t* text_out, int start, int end, uint8_t text_selector) {
 887              		.loc 3 1205 99 is_stmt 1 view -0
 888              		.cfi_startproc
 889              		@ args = 4, pretend = 0, frame = 0
 890              		@ frame_needed = 0, uses_anonymous_args = 0
 891              		.loc 3 1205 99 is_stmt 0 view .LVU218
 892 0000 2DE9F041 		push	{r4, r5, r6, r7, r8, lr}
ARM GAS  /tmp/ccDqKevX.s 			page 39


 893              	.LCFI12:
 894              		.cfi_def_cfa_offset 24
 895              		.cfi_offset 4, -24
 896              		.cfi_offset 5, -20
 897              		.cfi_offset 6, -16
 898              		.cfi_offset 7, -12
 899              		.cfi_offset 8, -8
 900              		.cfi_offset 14, -4
 901 0004 8646     		mov	lr, r0
 902 0006 9846     		mov	r8, r3
 903 0008 9DF81830 		ldrb	r3, [sp, #24]	@ zero_extendqisi2
 904              	.LVL61:
1206:Src/main.c    **** 
1207:Src/main.c    ****   // Zeichenanzahl überprüfen
1208:Src/main.c    ****   if ((end-start) <= 0) { return 0; }
 905              		.loc 3 1208 3 is_stmt 1 view .LVU219
 906              		.loc 3 1208 11 is_stmt 0 view .LVU220
 907 000c A8EB0200 		sub	r0, r8, r2
 908              	.LVL62:
 909              		.loc 3 1208 6 view .LVU221
 910 0010 0028     		cmp	r0, #0
 911 0012 2ADD     		ble	.L80
1209:Src/main.c    **** 
1210:Src/main.c    ****   // Font Init
1211:Src/main.c    ****   int char_width = 0;
 912              		.loc 3 1211 3 is_stmt 1 view .LVU222
 913              	.LVL63:
1212:Src/main.c    ****   uint8_t* font_data = NULL;
 914              		.loc 3 1212 3 view .LVU223
1213:Src/main.c    ****   switch (text_selector) {
 915              		.loc 3 1213 3 view .LVU224
 916 0014 43B1     		cbz	r3, .L81
 917 0016 012B     		cmp	r3, #1
 918 0018 29D1     		bne	.L82
1214:Src/main.c    ****     case 0: char_width = 8;   font_data = (uint8_t*)font8x8int;             break;
1215:Src/main.c    ****     case 1: char_width = 6;   font_data = (uint8_t*)font_6x8vertikal_LSB;   break;
 919              		.loc 3 1215 41 is_stmt 0 view .LVU225
 920 001a 174B     		ldr	r3, .L89
 921              		.loc 3 1215 24 view .LVU226
 922 001c 0627     		movs	r7, #6
 923              	.L74:
 924              	.LVL64:
1216:Src/main.c    ****     default: return 0; break;
 925              		.loc 3 1216 24 is_stmt 1 view .LVU227
1217:Src/main.c    ****   }
1218:Src/main.c    ****   if (font_data == NULL) { return 0; }
 926              		.loc 3 1218 3 view .LVU228
 927              		.loc 3 1218 6 is_stmt 0 view .LVU229
 928 001e 4BB3     		cbz	r3, .L83
1219:Src/main.c    **** 
1220:Src/main.c    ****   // Text aus Zeichen zusammensetzen
1221:Src/main.c    ****   int pos = 0;
1222:Src/main.c    ****   int spaceing_counter = 0;
 929              		.loc 3 1222 7 view .LVU230
 930 0020 4FF0000C 		mov	ip, #0
1221:Src/main.c    ****   int spaceing_counter = 0;
 931              		.loc 3 1221 7 view .LVU231
ARM GAS  /tmp/ccDqKevX.s 			page 40


 932 0024 6046     		mov	r0, ip
 933 0026 1CE0     		b	.L75
 934              	.LVL65:
 935              	.L81:
1213:Src/main.c    ****     case 0: char_width = 8;   font_data = (uint8_t*)font8x8int;             break;
 936              		.loc 3 1213 3 view .LVU232
 937 0028 144B     		ldr	r3, .L89+4
 938 002a 0827     		movs	r7, #8
 939 002c F7E7     		b	.L74
 940              	.LVL66:
 941              	.L84:
 942              	.LBB4:
 943              	.LBB5:
 944              	.LBB6:
1223:Src/main.c    ****   for (int i=start; i<end; i++) {
1224:Src/main.c    **** 
1225:Src/main.c    ****     // Alle Spalten eines Zeichens rüberkopieren
1226:Src/main.c    ****     for (int spalte=0; spalte<char_width; spalte++) {
1227:Src/main.c    **** 
1228:Src/main.c    ****       // Vertikale Pixeldaten abfragen
1229:Src/main.c    ****       uint8_t vert_data = (font_data[(char_width * text_in[i]) + spalte]);
1230:Src/main.c    **** 
1231:Src/main.c    ****       // evtl. Zwischenräume auslassen
1232:Src/main.c    ****       if (vert_data == 0 && text_in[i] != 32) { spaceing_counter++; } else { spaceing_counter=0; }
 945              		.loc 3 1232 94 view .LVU233
 946 002e 4FF0000C 		mov	ip, #0
 947              	.LVL67:
 948              	.L76:
1233:Src/main.c    ****       if (spaceing_counter <= 1) {
1234:Src/main.c    **** 
1235:Src/main.c    ****         // Pixeldaten schreiben
1236:Src/main.c    ****         text_out[pos] = vert_data;
 949              		.loc 3 1236 9 is_stmt 1 view .LVU234
 950              		.loc 3 1236 23 is_stmt 0 view .LVU235
 951 0032 0D54     		strb	r5, [r1, r0]
1237:Src/main.c    ****         pos++;
 952              		.loc 3 1237 9 is_stmt 1 view .LVU236
 953              		.loc 3 1237 12 is_stmt 0 view .LVU237
 954 0034 0130     		adds	r0, r0, #1
 955              	.LVL68:
 956              	.L77:
 957              		.loc 3 1237 12 view .LVU238
 958              	.LBE6:
1226:Src/main.c    **** 
 959              		.loc 3 1226 43 is_stmt 1 discriminator 2 view .LVU239
1226:Src/main.c    **** 
 960              		.loc 3 1226 49 is_stmt 0 discriminator 2 view .LVU240
 961 0036 0134     		adds	r4, r4, #1
 962              	.LVL69:
 963              	.L79:
1226:Src/main.c    **** 
 964              		.loc 3 1226 24 is_stmt 1 discriminator 1 view .LVU241
1226:Src/main.c    **** 
 965              		.loc 3 1226 5 is_stmt 0 discriminator 1 view .LVU242
 966 0038 A742     		cmp	r7, r4
 967 003a 11DD     		ble	.L88
 968              	.LBB7:
ARM GAS  /tmp/ccDqKevX.s 			page 41


1229:Src/main.c    **** 
 969              		.loc 3 1229 7 is_stmt 1 view .LVU243
1229:Src/main.c    **** 
 970              		.loc 3 1229 59 is_stmt 0 view .LVU244
 971 003c 1EF80260 		ldrb	r6, [lr, r2]	@ zero_extendqisi2
1229:Src/main.c    **** 
 972              		.loc 3 1229 64 view .LVU245
 973 0040 07FB0645 		mla	r5, r7, r6, r4
1229:Src/main.c    **** 
 974              		.loc 3 1229 15 view .LVU246
 975 0044 5D5D     		ldrb	r5, [r3, r5]	@ zero_extendqisi2
 976              	.LVL70:
1232:Src/main.c    ****       if (spaceing_counter <= 1) {
 977              		.loc 3 1232 7 is_stmt 1 view .LVU247
1232:Src/main.c    ****       if (spaceing_counter <= 1) {
 978              		.loc 3 1232 10 is_stmt 0 view .LVU248
 979 0046 002D     		cmp	r5, #0
 980 0048 F1D1     		bne	.L84
1232:Src/main.c    ****       if (spaceing_counter <= 1) {
 981              		.loc 3 1232 26 discriminator 1 view .LVU249
 982 004a 202E     		cmp	r6, #32
 983 004c 05D0     		beq	.L85
1232:Src/main.c    ****       if (spaceing_counter <= 1) {
 984              		.loc 3 1232 49 is_stmt 1 discriminator 3 view .LVU250
1232:Src/main.c    ****       if (spaceing_counter <= 1) {
 985              		.loc 3 1232 65 is_stmt 0 discriminator 3 view .LVU251
 986 004e 0CF1010C 		add	ip, ip, #1
 987              	.LVL71:
1233:Src/main.c    **** 
 988              		.loc 3 1233 7 is_stmt 1 discriminator 3 view .LVU252
1233:Src/main.c    **** 
 989              		.loc 3 1233 10 is_stmt 0 discriminator 3 view .LVU253
 990 0052 BCF1010F 		cmp	ip, #1
 991 0056 EEDC     		bgt	.L77
 992 0058 EBE7     		b	.L76
 993              	.L85:
1232:Src/main.c    ****       if (spaceing_counter <= 1) {
 994              		.loc 3 1232 94 view .LVU254
 995 005a 4FF0000C 		mov	ip, #0
 996              	.LVL72:
1232:Src/main.c    ****       if (spaceing_counter <= 1) {
 997              		.loc 3 1232 94 view .LVU255
 998 005e E8E7     		b	.L76
 999              	.LVL73:
 1000              	.L88:
1232:Src/main.c    ****       if (spaceing_counter <= 1) {
 1001              		.loc 3 1232 94 view .LVU256
 1002              	.LBE7:
 1003              	.LBE5:
1223:Src/main.c    **** 
 1004              		.loc 3 1223 28 is_stmt 1 discriminator 2 view .LVU257
1223:Src/main.c    **** 
 1005              		.loc 3 1223 29 is_stmt 0 discriminator 2 view .LVU258
 1006 0060 0132     		adds	r2, r2, #1
 1007              	.LVL74:
 1008              	.L75:
1223:Src/main.c    **** 
ARM GAS  /tmp/ccDqKevX.s 			page 42


 1009              		.loc 3 1223 21 is_stmt 1 discriminator 1 view .LVU259
1223:Src/main.c    **** 
 1010              		.loc 3 1223 3 is_stmt 0 discriminator 1 view .LVU260
 1011 0062 4245     		cmp	r2, r8
 1012 0064 04DA     		bge	.L72
 1013              	.LBB8:
1226:Src/main.c    **** 
 1014              		.loc 3 1226 14 view .LVU261
 1015 0066 0024     		movs	r4, #0
 1016 0068 E6E7     		b	.L79
 1017              	.LVL75:
 1018              	.L80:
1226:Src/main.c    **** 
 1019              		.loc 3 1226 14 view .LVU262
 1020              	.LBE8:
 1021              	.LBE4:
1208:Src/main.c    **** 
 1022              		.loc 3 1208 34 view .LVU263
 1023 006a 0020     		movs	r0, #0
 1024 006c 00E0     		b	.L72
 1025              	.LVL76:
 1026              	.L82:
1213:Src/main.c    ****     case 0: char_width = 8;   font_data = (uint8_t*)font8x8int;             break;
 1027              		.loc 3 1213 3 view .LVU264
 1028 006e 0020     		movs	r0, #0
 1029              	.LVL77:
 1030              	.L72:
1238:Src/main.c    ****       }
1239:Src/main.c    ****     }
1240:Src/main.c    ****   }
1241:Src/main.c    **** 
1242:Src/main.c    ****   // Geschriebe Länge zurückgeben
1243:Src/main.c    ****   return pos;
1244:Src/main.c    **** }
 1031              		.loc 3 1244 1 view .LVU265
 1032 0070 BDE8F081 		pop	{r4, r5, r6, r7, r8, pc}
 1033              	.LVL78:
 1034              	.L83:
1218:Src/main.c    **** 
 1035              		.loc 3 1218 35 view .LVU266
 1036 0074 0020     		movs	r0, #0
 1037 0076 FBE7     		b	.L72
 1038              	.L90:
 1039              		.align	2
 1040              	.L89:
 1041 0078 00000000 		.word	.LANCHOR13
 1042 007c 00000000 		.word	.LANCHOR12
 1043              		.cfi_endproc
 1044              	.LFE80:
 1046              		.section	.rodata.Run_CMD.str1.4,"aMS",%progbits,1
 1047              		.align	2
 1048              	.LC1:
 1049 0000 2000     		.ascii	" \000"
 1050 0002 0000     		.align	2
 1051              	.LC2:
 1052 0004 5345545F 		.ascii	"SET_DOT\000"
 1052      444F5400 
ARM GAS  /tmp/ccDqKevX.s 			page 43


 1053              		.align	2
 1054              	.LC3:
 1055 000c 4C494748 		.ascii	"LIGHT\000"
 1055      5400
 1056 0012 0000     		.align	2
 1057              	.LC4:
 1058 0014 5345545F 		.ascii	"SET_ALL\000"
 1058      414C4C00 
 1059              		.align	2
 1060              	.LC5:
 1061 001c 5345545F 		.ascii	"SET_BUFF\000"
 1061      42554646 
 1061      00
 1062 0025 000000   		.align	2
 1063              	.LC6:
 1064 0028 52454652 		.ascii	"REFRESH\000"
 1064      45534800 
 1065              		.align	2
 1066              	.LC7:
 1067 0030 54455854 		.ascii	"TEXT_TOP\000"
 1067      5F544F50 
 1067      00
 1068 0039 000000   		.align	2
 1069              	.LC8:
 1070 003c 54455854 		.ascii	"TEXT_CENTER\000"
 1070      5F43454E 
 1070      54455200 
 1071              		.align	2
 1072              	.LC9:
 1073 0048 54455854 		.ascii	"TEXT_BOTTOM\000"
 1073      5F424F54 
 1073      544F4D00 
 1074              		.section	.text.Run_CMD,"ax",%progbits
 1075              		.align	1
 1076              		.global	Run_CMD
 1077              		.syntax unified
 1078              		.thumb
 1079              		.thumb_func
 1080              		.fpu softvfp
 1082              	Run_CMD:
 1083              	.LVL79:
 1084              	.LFB75:
 639:Src/main.c    **** 
 1085              		.loc 3 639 37 is_stmt 1 view -0
 1086              		.cfi_startproc
 1087              		@ args = 0, pretend = 0, frame = 40
 1088              		@ frame_needed = 0, uses_anonymous_args = 0
 639:Src/main.c    **** 
 1089              		.loc 3 639 37 is_stmt 0 view .LVU268
 1090 0000 2DE9F041 		push	{r4, r5, r6, r7, r8, lr}
 1091              	.LCFI13:
 1092              		.cfi_def_cfa_offset 24
 1093              		.cfi_offset 4, -24
 1094              		.cfi_offset 5, -20
 1095              		.cfi_offset 6, -16
 1096              		.cfi_offset 7, -12
 1097              		.cfi_offset 8, -8
ARM GAS  /tmp/ccDqKevX.s 			page 44


 1098              		.cfi_offset 14, -4
 1099 0004 8CB0     		sub	sp, sp, #48
 1100              	.LCFI14:
 1101              		.cfi_def_cfa_offset 72
 1102 0006 0446     		mov	r4, r0
 647:Src/main.c    ****   uint8_t quotation_marks_cnt = 0;
 1103              		.loc 3 647 3 is_stmt 1 view .LVU269
 647:Src/main.c    ****   uint8_t quotation_marks_cnt = 0;
 1104              		.loc 3 647 22 is_stmt 0 view .LVU270
 1105 0008 FFF7FEFF 		bl	strlen
 1106              	.LVL80:
 648:Src/main.c    ****   char* arg_text = NULL;
 1107              		.loc 3 648 3 is_stmt 1 view .LVU271
 649:Src/main.c    ****   for (uint32_t i=0; i<str_len; i++) {
 1108              		.loc 3 649 3 view .LVU272
 650:Src/main.c    ****     if (command[i] == '\"') {
 1109              		.loc 3 650 3 view .LVU273
 1110              	.LBB9:
 650:Src/main.c    ****     if (command[i] == '\"') {
 1111              		.loc 3 650 8 view .LVU274
 650:Src/main.c    ****     if (command[i] == '\"') {
 1112              		.loc 3 650 17 is_stmt 0 view .LVU275
 1113 000c 0023     		movs	r3, #0
 1114              	.LBE9:
 649:Src/main.c    ****   for (uint32_t i=0; i<str_len; i++) {
 1115              		.loc 3 649 9 view .LVU276
 1116 000e 1E46     		mov	r6, r3
 648:Src/main.c    ****   char* arg_text = NULL;
 1117              		.loc 3 648 11 view .LVU277
 1118 0010 1D46     		mov	r5, r3
 1119              	.LBB10:
 650:Src/main.c    ****     if (command[i] == '\"') {
 1120              		.loc 3 650 3 view .LVU278
 1121 0012 05E0     		b	.L92
 1122              	.LVL81:
 1123              	.L235:
 657:Src/main.c    ****       }
 1124              		.loc 3 657 9 is_stmt 1 view .LVU279
 657:Src/main.c    ****       }
 1125              		.loc 3 657 40 is_stmt 0 view .LVU280
 1126 0014 5E1C     		adds	r6, r3, #1
 1127              	.LVL82:
 657:Src/main.c    ****       }
 1128              		.loc 3 657 18 view .LVU281
 1129 0016 2644     		add	r6, r6, r4
 1130              	.LVL83:
 1131              	.L93:
 660:Src/main.c    ****       command[i] = '\0';
 1132              		.loc 3 660 5 is_stmt 1 view .LVU282
 660:Src/main.c    ****       command[i] = '\0';
 1133              		.loc 3 660 16 is_stmt 0 view .LVU283
 1134 0018 1178     		ldrb	r1, [r2]	@ zero_extendqisi2
 660:Src/main.c    ****       command[i] = '\0';
 1135              		.loc 3 660 8 view .LVU284
 1136 001a 0A29     		cmp	r1, #10
 1137 001c 0DD0     		beq	.L233
 1138              	.L94:
ARM GAS  /tmp/ccDqKevX.s 			page 45


 650:Src/main.c    ****     if (command[i] == '\"') {
 1139              		.loc 3 650 33 is_stmt 1 discriminator 2 view .LVU285
 650:Src/main.c    ****     if (command[i] == '\"') {
 1140              		.loc 3 650 34 is_stmt 0 discriminator 2 view .LVU286
 1141 001e 0133     		adds	r3, r3, #1
 1142              	.LVL84:
 1143              	.L92:
 650:Src/main.c    ****     if (command[i] == '\"') {
 1144              		.loc 3 650 22 is_stmt 1 discriminator 1 view .LVU287
 650:Src/main.c    ****     if (command[i] == '\"') {
 1145              		.loc 3 650 3 is_stmt 0 discriminator 1 view .LVU288
 1146 0020 8342     		cmp	r3, r0
 1147 0022 0DD2     		bcs	.L234
 651:Src/main.c    ****       command[i] = '\0';
 1148              		.loc 3 651 5 is_stmt 1 view .LVU289
 651:Src/main.c    ****       command[i] = '\0';
 1149              		.loc 3 651 16 is_stmt 0 view .LVU290
 1150 0024 E218     		adds	r2, r4, r3
 1151 0026 E15C     		ldrb	r1, [r4, r3]	@ zero_extendqisi2
 651:Src/main.c    ****       command[i] = '\0';
 1152              		.loc 3 651 8 view .LVU291
 1153 0028 2229     		cmp	r1, #34
 1154 002a F5D1     		bne	.L93
 652:Src/main.c    ****       quotation_marks_cnt++;
 1155              		.loc 3 652 7 is_stmt 1 view .LVU292
 652:Src/main.c    ****       quotation_marks_cnt++;
 1156              		.loc 3 652 18 is_stmt 0 view .LVU293
 1157 002c 0021     		movs	r1, #0
 1158 002e E154     		strb	r1, [r4, r3]
 653:Src/main.c    **** 
 1159              		.loc 3 653 7 is_stmt 1 view .LVU294
 653:Src/main.c    **** 
 1160              		.loc 3 653 26 is_stmt 0 view .LVU295
 1161 0030 0135     		adds	r5, r5, #1
 1162              	.LVL85:
 653:Src/main.c    **** 
 1163              		.loc 3 653 26 view .LVU296
 1164 0032 EDB2     		uxtb	r5, r5
 1165              	.LVL86:
 656:Src/main.c    ****         arg_text = (char*)(command + i + 1);
 1166              		.loc 3 656 7 is_stmt 1 view .LVU297
 656:Src/main.c    ****         arg_text = (char*)(command + i + 1);
 1167              		.loc 3 656 10 is_stmt 0 view .LVU298
 1168 0034 002E     		cmp	r6, #0
 1169 0036 EFD1     		bne	.L93
 1170 0038 ECE7     		b	.L235
 1171              	.L233:
 661:Src/main.c    ****     }
 1172              		.loc 3 661 7 is_stmt 1 view .LVU299
 661:Src/main.c    ****     }
 1173              		.loc 3 661 18 is_stmt 0 view .LVU300
 1174 003a 0021     		movs	r1, #0
 1175 003c 1170     		strb	r1, [r2]
 1176 003e EEE7     		b	.L94
 1177              	.L234:
 661:Src/main.c    ****     }
 1178              		.loc 3 661 18 view .LVU301
ARM GAS  /tmp/ccDqKevX.s 			page 46


 1179              	.LBE10:
 664:Src/main.c    ****     return -1; // invalid command
 1180              		.loc 3 664 3 is_stmt 1 view .LVU302
 664:Src/main.c    ****     return -1; // invalid command
 1181              		.loc 3 664 6 is_stmt 0 view .LVU303
 1182 0040 15B1     		cbz	r5, .L96
 664:Src/main.c    ****     return -1; // invalid command
 1183              		.loc 3 664 32 discriminator 1 view .LVU304
 1184 0042 022D     		cmp	r5, #2
 1185 0044 40F08483 		bne	.L185
 1186              	.L96:
 669:Src/main.c    ****   args[0] = strtok((char*)command, " ");
 1187              		.loc 3 669 3 is_stmt 1 view .LVU305
 670:Src/main.c    ****   int f = 0;
 1188              		.loc 3 670 3 view .LVU306
 670:Src/main.c    ****   int f = 0;
 1189              		.loc 3 670 13 is_stmt 0 view .LVU307
 1190 0048 AB49     		ldr	r1, .L258
 1191 004a 2046     		mov	r0, r4
 1192              	.LVL87:
 670:Src/main.c    ****   int f = 0;
 1193              		.loc 3 670 13 view .LVU308
 1194 004c FFF7FEFF 		bl	strtok
 1195              	.LVL88:
 670:Src/main.c    ****   int f = 0;
 1196              		.loc 3 670 11 view .LVU309
 1197 0050 0290     		str	r0, [sp, #8]
 671:Src/main.c    ****   while (args[f]) {
 1198              		.loc 3 671 3 is_stmt 1 view .LVU310
 1199              	.LVL89:
 672:Src/main.c    ****     f++;
 1200              		.loc 3 672 3 view .LVU311
 671:Src/main.c    ****   while (args[f]) {
 1201              		.loc 3 671 7 is_stmt 0 view .LVU312
 1202 0052 0024     		movs	r4, #0
 1203              	.LVL90:
 672:Src/main.c    ****     f++;
 1204              		.loc 3 672 9 view .LVU313
 1205 0054 08E0     		b	.L98
 1206              	.LVL91:
 1207              	.L236:
 675:Src/main.c    ****   }
 1208              		.loc 3 675 5 is_stmt 1 view .LVU314
 675:Src/main.c    ****   }
 1209              		.loc 3 675 15 is_stmt 0 view .LVU315
 1210 0056 A849     		ldr	r1, .L258
 1211 0058 0020     		movs	r0, #0
 1212 005a FFF7FEFF 		bl	strtok
 1213              	.LVL92:
 675:Src/main.c    ****   }
 1214              		.loc 3 675 13 view .LVU316
 1215 005e 0CAB     		add	r3, sp, #48
 1216 0060 03EB8403 		add	r3, r3, r4, lsl #2
 1217 0064 43F8280C 		str	r0, [r3, #-40]
 1218              	.LVL93:
 1219              	.L98:
 672:Src/main.c    ****     f++;
ARM GAS  /tmp/ccDqKevX.s 			page 47


 1220              		.loc 3 672 9 is_stmt 1 view .LVU317
 672:Src/main.c    ****     f++;
 1221              		.loc 3 672 14 is_stmt 0 view .LVU318
 1222 0068 0CAB     		add	r3, sp, #48
 1223 006a 03EB8403 		add	r3, r3, r4, lsl #2
 1224 006e 53F8283C 		ldr	r3, [r3, #-40]
 672:Src/main.c    ****     f++;
 1225              		.loc 3 672 9 view .LVU319
 1226 0072 13B1     		cbz	r3, .L99
 673:Src/main.c    ****     if (f >= max_cmd_args) { break; }
 1227              		.loc 3 673 5 is_stmt 1 view .LVU320
 673:Src/main.c    ****     if (f >= max_cmd_args) { break; }
 1228              		.loc 3 673 6 is_stmt 0 view .LVU321
 1229 0074 0134     		adds	r4, r4, #1
 1230              	.LVL94:
 674:Src/main.c    ****     args[f] = strtok(NULL, " ");
 1231              		.loc 3 674 5 is_stmt 1 view .LVU322
 674:Src/main.c    ****     args[f] = strtok(NULL, " ");
 1232              		.loc 3 674 8 is_stmt 0 view .LVU323
 1233 0076 092C     		cmp	r4, #9
 1234 0078 EDDD     		ble	.L236
 1235              	.L99:
 677:Src/main.c    ****     args[f] = NULL;
 1236              		.loc 3 677 3 is_stmt 1 view .LVU324
 677:Src/main.c    ****     args[f] = NULL;
 1237              		.loc 3 677 6 is_stmt 0 view .LVU325
 1238 007a 092C     		cmp	r4, #9
 1239 007c 00DC     		bgt	.L101
 677:Src/main.c    ****     args[f] = NULL;
 1240              		.loc 3 677 24 discriminator 1 view .LVU326
 1241 007e F6B1     		cbz	r6, .L237
 1242              	.L101:
 682:Src/main.c    ****     uint8_t pos_text = f;
 1243              		.loc 3 682 3 is_stmt 1 view .LVU327
 682:Src/main.c    ****     uint8_t pos_text = f;
 1244              		.loc 3 682 6 is_stmt 0 view .LVU328
 1245 0080 8EB1     		cbz	r6, .L102
 1246              	.LBB11:
 683:Src/main.c    ****     if (!(pos_text >= max_cmd_args)) {
 1247              		.loc 3 683 5 is_stmt 1 view .LVU329
 683:Src/main.c    ****     if (!(pos_text >= max_cmd_args)) {
 1248              		.loc 3 683 13 is_stmt 0 view .LVU330
 1249 0082 E3B2     		uxtb	r3, r4
 1250              	.LVL95:
 684:Src/main.c    ****       args[pos_text] = arg_text;
 1251              		.loc 3 684 5 is_stmt 1 view .LVU331
 684:Src/main.c    ****       args[pos_text] = arg_text;
 1252              		.loc 3 684 8 is_stmt 0 view .LVU332
 1253 0084 092B     		cmp	r3, #9
 1254 0086 04D8     		bhi	.L103
 685:Src/main.c    ****     }
 1255              		.loc 3 685 7 is_stmt 1 view .LVU333
 685:Src/main.c    ****     }
 1256              		.loc 3 685 22 is_stmt 0 view .LVU334
 1257 0088 0CA9     		add	r1, sp, #48
 1258 008a 01EB8302 		add	r2, r1, r3, lsl #2
 1259 008e 42F8286C 		str	r6, [r2, #-40]
ARM GAS  /tmp/ccDqKevX.s 			page 48


 1260              	.L103:
 687:Src/main.c    ****       args[pos_text+1] = NULL;
 1261              		.loc 3 687 5 is_stmt 1 view .LVU335
 687:Src/main.c    ****       args[pos_text+1] = NULL;
 1262              		.loc 3 687 8 is_stmt 0 view .LVU336
 1263 0092 082B     		cmp	r3, #8
 1264 0094 07D8     		bhi	.L102
 688:Src/main.c    ****     }
 1265              		.loc 3 688 7 is_stmt 1 view .LVU337
 688:Src/main.c    ****     }
 1266              		.loc 3 688 20 is_stmt 0 view .LVU338
 1267 0096 E3B2     		uxtb	r3, r4
 1268              	.LVL96:
 688:Src/main.c    ****     }
 1269              		.loc 3 688 20 view .LVU339
 1270 0098 0133     		adds	r3, r3, #1
 688:Src/main.c    ****     }
 1271              		.loc 3 688 24 view .LVU340
 1272 009a 0CAA     		add	r2, sp, #48
 1273 009c 02EB8303 		add	r3, r2, r3, lsl #2
 1274 00a0 0022     		movs	r2, #0
 1275 00a2 43F8282C 		str	r2, [r3, #-40]
 1276              	.LVL97:
 1277              	.L102:
 688:Src/main.c    ****     }
 1278              		.loc 3 688 24 view .LVU341
 1279              	.LBE11:
 693:Src/main.c    ****   while (args[arg_cnt] && arg_cnt < max_cmd_args) { arg_cnt++; }
 1280              		.loc 3 693 3 is_stmt 1 view .LVU342
 694:Src/main.c    ****   if (!arg_cnt) {
 1281              		.loc 3 694 3 view .LVU343
 693:Src/main.c    ****   while (args[arg_cnt] && arg_cnt < max_cmd_args) { arg_cnt++; }
 1282              		.loc 3 693 11 is_stmt 0 view .LVU344
 1283 00a6 0024     		movs	r4, #0
 1284              	.LVL98:
 1285              	.L104:
 694:Src/main.c    ****   if (!arg_cnt) {
 1286              		.loc 3 694 9 is_stmt 1 discriminator 1 view .LVU345
 694:Src/main.c    ****   if (!arg_cnt) {
 1287              		.loc 3 694 14 is_stmt 0 discriminator 1 view .LVU346
 1288 00a8 0CAB     		add	r3, sp, #48
 1289 00aa 03EB8403 		add	r3, r3, r4, lsl #2
 1290 00ae 53F8283C 		ldr	r3, [r3, #-40]
 694:Src/main.c    ****   if (!arg_cnt) {
 1291              		.loc 3 694 9 discriminator 1 view .LVU347
 1292 00b2 5BB1     		cbz	r3, .L105
 694:Src/main.c    ****   if (!arg_cnt) {
 1293              		.loc 3 694 24 discriminator 2 view .LVU348
 1294 00b4 092C     		cmp	r4, #9
 1295 00b6 09D8     		bhi	.L105
 694:Src/main.c    ****   if (!arg_cnt) {
 1296              		.loc 3 694 53 is_stmt 1 discriminator 3 view .LVU349
 694:Src/main.c    ****   if (!arg_cnt) {
 1297              		.loc 3 694 60 is_stmt 0 discriminator 3 view .LVU350
 1298 00b8 0134     		adds	r4, r4, #1
 1299              	.LVL99:
 694:Src/main.c    ****   if (!arg_cnt) {
ARM GAS  /tmp/ccDqKevX.s 			page 49


 1300              		.loc 3 694 60 discriminator 3 view .LVU351
 1301 00ba E4B2     		uxtb	r4, r4
 1302              	.LVL100:
 694:Src/main.c    ****   if (!arg_cnt) {
 1303              		.loc 3 694 60 discriminator 3 view .LVU352
 1304 00bc F4E7     		b	.L104
 1305              	.LVL101:
 1306              	.L237:
 678:Src/main.c    ****   }
 1307              		.loc 3 678 5 is_stmt 1 view .LVU353
 678:Src/main.c    ****   }
 1308              		.loc 3 678 13 is_stmt 0 view .LVU354
 1309 00be 0022     		movs	r2, #0
 1310 00c0 0CAB     		add	r3, sp, #48
 1311 00c2 03EB8403 		add	r3, r3, r4, lsl #2
 1312 00c6 43F8282C 		str	r2, [r3, #-40]
 1313 00ca D9E7     		b	.L101
 1314              	.LVL102:
 1315              	.L105:
 695:Src/main.c    ****     return -1;
 1316              		.loc 3 695 3 is_stmt 1 view .LVU355
 695:Src/main.c    ****     return -1;
 1317              		.loc 3 695 6 is_stmt 0 view .LVU356
 1318 00cc 002C     		cmp	r4, #0
 1319 00ce 00F04283 		beq	.L186
 700:Src/main.c    ****   if        (arg_cnt == 4 && !strcmp(args[0], "SET_DOT")) {   current_cmd = CMD_SET_DOT;
 1320              		.loc 3 700 3 is_stmt 1 view .LVU357
 1321              	.LVL103:
 701:Src/main.c    ****   } else if (arg_cnt == 2 && !strcmp(args[0], "LIGHT")) {     current_cmd = CMD_LIGHT; 
 1322              		.loc 3 701 3 view .LVU358
 701:Src/main.c    ****   } else if (arg_cnt == 2 && !strcmp(args[0], "LIGHT")) {     current_cmd = CMD_LIGHT; 
 1323              		.loc 3 701 13 is_stmt 0 view .LVU359
 1324 00d2 042C     		cmp	r4, #4
 1325 00d4 24D0     		beq	.L238
 1326              	.L107:
 702:Src/main.c    ****   } else if (arg_cnt == 2 && !strcmp(args[0], "SET_ALL")) {   current_cmd = CMD_SET_ALL;
 1327              		.loc 3 702 10 is_stmt 1 view .LVU360
 702:Src/main.c    ****   } else if (arg_cnt == 2 && !strcmp(args[0], "SET_ALL")) {   current_cmd = CMD_SET_ALL;
 1328              		.loc 3 702 13 is_stmt 0 view .LVU361
 1329 00d6 022C     		cmp	r4, #2
 1330 00d8 2AD0     		beq	.L239
 1331              	.L109:
 703:Src/main.c    ****   } else if (arg_cnt == 2 && !strcmp(args[0], "SET_BUFF")) {  current_cmd = CMD_SET_BUFF;
 1332              		.loc 3 703 10 is_stmt 1 view .LVU362
 703:Src/main.c    ****   } else if (arg_cnt == 2 && !strcmp(args[0], "SET_BUFF")) {  current_cmd = CMD_SET_BUFF;
 1333              		.loc 3 703 13 is_stmt 0 view .LVU363
 1334 00da 022C     		cmp	r4, #2
 1335 00dc 30D0     		beq	.L240
 1336              	.L110:
 704:Src/main.c    ****   } else if (arg_cnt == 1 && !strcmp(args[0], "REFRESH")) {   current_cmd = CMD_REFRESH; 
 1337              		.loc 3 704 10 is_stmt 1 view .LVU364
 704:Src/main.c    ****   } else if (arg_cnt == 1 && !strcmp(args[0], "REFRESH")) {   current_cmd = CMD_REFRESH; 
 1338              		.loc 3 704 13 is_stmt 0 view .LVU365
 1339 00de 022C     		cmp	r4, #2
 1340 00e0 35D0     		beq	.L241
 1341              	.L111:
 705:Src/main.c    ****   } else if (arg_cnt == 4 && !strcmp(args[0], "TEXT_TOP")) {  current_cmd = CMD_TEXT_TOP; 
ARM GAS  /tmp/ccDqKevX.s 			page 50


 1342              		.loc 3 705 10 is_stmt 1 view .LVU366
 705:Src/main.c    ****   } else if (arg_cnt == 4 && !strcmp(args[0], "TEXT_TOP")) {  current_cmd = CMD_TEXT_TOP; 
 1343              		.loc 3 705 13 is_stmt 0 view .LVU367
 1344 00e2 012C     		cmp	r4, #1
 1345 00e4 3BD0     		beq	.L242
 1346              	.L112:
 706:Src/main.c    ****   } else if (arg_cnt == 4 && !strcmp(args[0], "TEXT_CENTER")) {   current_cmd = CMD_TEXT_CENTER;
 1347              		.loc 3 706 10 is_stmt 1 view .LVU368
 706:Src/main.c    ****   } else if (arg_cnt == 4 && !strcmp(args[0], "TEXT_CENTER")) {   current_cmd = CMD_TEXT_CENTER;
 1348              		.loc 3 706 13 is_stmt 0 view .LVU369
 1349 00e6 042C     		cmp	r4, #4
 1350 00e8 41D0     		beq	.L243
 1351              	.L113:
 707:Src/main.c    ****   } else if (arg_cnt == 4 && !strcmp(args[0], "TEXT_BOTTOM")) {   current_cmd = CMD_TEXT_BOTTOM;
 1352              		.loc 3 707 10 is_stmt 1 view .LVU370
 707:Src/main.c    ****   } else if (arg_cnt == 4 && !strcmp(args[0], "TEXT_BOTTOM")) {   current_cmd = CMD_TEXT_BOTTOM;
 1353              		.loc 3 707 13 is_stmt 0 view .LVU371
 1354 00ea 042C     		cmp	r4, #4
 1355 00ec 47D0     		beq	.L244
 1356              	.L114:
 708:Src/main.c    ****   }
 1357              		.loc 3 708 10 is_stmt 1 view .LVU372
 708:Src/main.c    ****   }
 1358              		.loc 3 708 13 is_stmt 0 view .LVU373
 1359 00ee 042C     		cmp	r4, #4
 1360 00f0 40F03483 		bne	.L193
 708:Src/main.c    ****   }
 1361              		.loc 3 708 31 discriminator 1 view .LVU374
 1362 00f4 8149     		ldr	r1, .L258+4
 1363 00f6 0298     		ldr	r0, [sp, #8]
 1364 00f8 FFF7FEFF 		bl	strcmp
 1365              	.LVL104:
 708:Src/main.c    ****   }
 1366              		.loc 3 708 27 discriminator 1 view .LVU375
 1367 00fc 0028     		cmp	r0, #0
 1368 00fe 40F03083 		bne	.L194
 708:Src/main.c    ****   }
 1369              		.loc 3 708 79 view .LVU376
 1370 0102 0624     		movs	r4, #6
 1371              	.LVL105:
 1372              	.L108:
 719:Src/main.c    **** 
 1373              		.loc 3 719 3 is_stmt 1 view .LVU377
 1374 0104 013C     		subs	r4, r4, #1
 1375 0106 072C     		cmp	r4, #7
 1376 0108 00F22E83 		bhi	.L195
 1377 010c DFE814F0 		tbh	[pc, r4, lsl #1]
 1378              	.L116:
 1379 0110 3F00     		.2byte	(.L123-.L116)/2
 1380 0112 5100     		.2byte	(.L122-.L116)/2
 1381 0114 5F00     		.2byte	(.L121-.L116)/2
 1382 0116 B300     		.2byte	(.L120-.L116)/2
 1383 0118 8100     		.2byte	(.L119-.L116)/2
 1384 011a 5102     		.2byte	(.L118-.L116)/2
 1385 011c 9601     		.2byte	(.L117-.L116)/2
 1386 011e BB00     		.2byte	(.L115-.L116)/2
 1387              	.LVL106:
ARM GAS  /tmp/ccDqKevX.s 			page 51


 1388              		.p2align 1
 1389              	.L238:
 701:Src/main.c    ****   } else if (arg_cnt == 2 && !strcmp(args[0], "LIGHT")) {     current_cmd = CMD_LIGHT; 
 1390              		.loc 3 701 31 is_stmt 0 discriminator 1 view .LVU378
 1391 0120 7749     		ldr	r1, .L258+8
 1392 0122 0298     		ldr	r0, [sp, #8]
 1393 0124 FFF7FEFF 		bl	strcmp
 1394              	.LVL107:
 701:Src/main.c    ****   } else if (arg_cnt == 2 && !strcmp(args[0], "LIGHT")) {     current_cmd = CMD_LIGHT; 
 1395              		.loc 3 701 27 discriminator 1 view .LVU379
 1396 0128 0028     		cmp	r0, #0
 1397 012a D4D1     		bne	.L107
 701:Src/main.c    ****   } else if (arg_cnt == 2 && !strcmp(args[0], "LIGHT")) {     current_cmd = CMD_LIGHT; 
 1398              		.loc 3 701 75 view .LVU380
 1399 012c 0524     		movs	r4, #5
 1400              	.LVL108:
 701:Src/main.c    ****   } else if (arg_cnt == 2 && !strcmp(args[0], "LIGHT")) {     current_cmd = CMD_LIGHT; 
 1401              		.loc 3 701 75 view .LVU381
 1402 012e E9E7     		b	.L108
 1403              	.LVL109:
 1404              	.L239:
 702:Src/main.c    ****   } else if (arg_cnt == 2 && !strcmp(args[0], "SET_ALL")) {   current_cmd = CMD_SET_ALL;
 1405              		.loc 3 702 31 discriminator 1 view .LVU382
 1406 0130 7449     		ldr	r1, .L258+12
 1407 0132 0298     		ldr	r0, [sp, #8]
 1408 0134 FFF7FEFF 		bl	strcmp
 1409              	.LVL110:
 702:Src/main.c    ****   } else if (arg_cnt == 2 && !strcmp(args[0], "SET_ALL")) {   current_cmd = CMD_SET_ALL;
 1410              		.loc 3 702 27 discriminator 1 view .LVU383
 1411 0138 0028     		cmp	r0, #0
 1412 013a CED1     		bne	.L109
 702:Src/main.c    ****   } else if (arg_cnt == 2 && !strcmp(args[0], "SET_ALL")) {   current_cmd = CMD_SET_ALL;
 1413              		.loc 3 702 75 view .LVU384
 1414 013c 0124     		movs	r4, #1
 1415              	.LVL111:
 702:Src/main.c    ****   } else if (arg_cnt == 2 && !strcmp(args[0], "SET_ALL")) {   current_cmd = CMD_SET_ALL;
 1416              		.loc 3 702 75 view .LVU385
 1417 013e E1E7     		b	.L108
 1418              	.LVL112:
 1419              	.L240:
 703:Src/main.c    ****   } else if (arg_cnt == 2 && !strcmp(args[0], "SET_BUFF")) {  current_cmd = CMD_SET_BUFF;
 1420              		.loc 3 703 31 discriminator 1 view .LVU386
 1421 0140 7149     		ldr	r1, .L258+16
 1422 0142 0298     		ldr	r0, [sp, #8]
 1423 0144 FFF7FEFF 		bl	strcmp
 1424              	.LVL113:
 703:Src/main.c    ****   } else if (arg_cnt == 2 && !strcmp(args[0], "SET_BUFF")) {  current_cmd = CMD_SET_BUFF;
 1425              		.loc 3 703 27 discriminator 1 view .LVU387
 1426 0148 0028     		cmp	r0, #0
 1427 014a DBD0     		beq	.L108
 1428 014c C7E7     		b	.L110
 1429              	.L241:
 704:Src/main.c    ****   } else if (arg_cnt == 1 && !strcmp(args[0], "REFRESH")) {   current_cmd = CMD_REFRESH; 
 1430              		.loc 3 704 31 discriminator 1 view .LVU388
 1431 014e 6F49     		ldr	r1, .L258+20
 1432 0150 0298     		ldr	r0, [sp, #8]
 1433 0152 FFF7FEFF 		bl	strcmp
ARM GAS  /tmp/ccDqKevX.s 			page 52


 1434              	.LVL114:
 704:Src/main.c    ****   } else if (arg_cnt == 1 && !strcmp(args[0], "REFRESH")) {   current_cmd = CMD_REFRESH; 
 1435              		.loc 3 704 27 discriminator 1 view .LVU389
 1436 0156 0028     		cmp	r0, #0
 1437 0158 C3D1     		bne	.L111
 704:Src/main.c    ****   } else if (arg_cnt == 1 && !strcmp(args[0], "REFRESH")) {   current_cmd = CMD_REFRESH; 
 1438              		.loc 3 704 75 view .LVU390
 1439 015a 0324     		movs	r4, #3
 1440              	.LVL115:
 704:Src/main.c    ****   } else if (arg_cnt == 1 && !strcmp(args[0], "REFRESH")) {   current_cmd = CMD_REFRESH; 
 1441              		.loc 3 704 75 view .LVU391
 1442 015c D2E7     		b	.L108
 1443              	.LVL116:
 1444              	.L242:
 705:Src/main.c    ****   } else if (arg_cnt == 4 && !strcmp(args[0], "TEXT_TOP")) {  current_cmd = CMD_TEXT_TOP; 
 1445              		.loc 3 705 31 discriminator 1 view .LVU392
 1446 015e 6C49     		ldr	r1, .L258+24
 1447 0160 0298     		ldr	r0, [sp, #8]
 1448 0162 FFF7FEFF 		bl	strcmp
 1449              	.LVL117:
 705:Src/main.c    ****   } else if (arg_cnt == 4 && !strcmp(args[0], "TEXT_TOP")) {  current_cmd = CMD_TEXT_TOP; 
 1450              		.loc 3 705 27 discriminator 1 view .LVU393
 1451 0166 0028     		cmp	r0, #0
 1452 0168 BDD1     		bne	.L112
 705:Src/main.c    ****   } else if (arg_cnt == 4 && !strcmp(args[0], "TEXT_TOP")) {  current_cmd = CMD_TEXT_TOP; 
 1453              		.loc 3 705 75 view .LVU394
 1454 016a 0424     		movs	r4, #4
 1455              	.LVL118:
 705:Src/main.c    ****   } else if (arg_cnt == 4 && !strcmp(args[0], "TEXT_TOP")) {  current_cmd = CMD_TEXT_TOP; 
 1456              		.loc 3 705 75 view .LVU395
 1457 016c CAE7     		b	.L108
 1458              	.LVL119:
 1459              	.L243:
 706:Src/main.c    ****   } else if (arg_cnt == 4 && !strcmp(args[0], "TEXT_CENTER")) {   current_cmd = CMD_TEXT_CENTER;
 1460              		.loc 3 706 31 discriminator 1 view .LVU396
 1461 016e 6949     		ldr	r1, .L258+28
 1462 0170 0298     		ldr	r0, [sp, #8]
 1463 0172 FFF7FEFF 		bl	strcmp
 1464              	.LVL120:
 706:Src/main.c    ****   } else if (arg_cnt == 4 && !strcmp(args[0], "TEXT_CENTER")) {   current_cmd = CMD_TEXT_CENTER;
 1465              		.loc 3 706 27 discriminator 1 view .LVU397
 1466 0176 0028     		cmp	r0, #0
 1467 0178 B7D1     		bne	.L113
 706:Src/main.c    ****   } else if (arg_cnt == 4 && !strcmp(args[0], "TEXT_CENTER")) {   current_cmd = CMD_TEXT_CENTER;
 1468              		.loc 3 706 75 view .LVU398
 1469 017a 0724     		movs	r4, #7
 1470              	.LVL121:
 706:Src/main.c    ****   } else if (arg_cnt == 4 && !strcmp(args[0], "TEXT_CENTER")) {   current_cmd = CMD_TEXT_CENTER;
 1471              		.loc 3 706 75 view .LVU399
 1472 017c C2E7     		b	.L108
 1473              	.LVL122:
 1474              	.L244:
 707:Src/main.c    ****   } else if (arg_cnt == 4 && !strcmp(args[0], "TEXT_BOTTOM")) {   current_cmd = CMD_TEXT_BOTTOM;
 1475              		.loc 3 707 31 discriminator 1 view .LVU400
 1476 017e 6649     		ldr	r1, .L258+32
 1477 0180 0298     		ldr	r0, [sp, #8]
 1478 0182 FFF7FEFF 		bl	strcmp
ARM GAS  /tmp/ccDqKevX.s 			page 53


 1479              	.LVL123:
 707:Src/main.c    ****   } else if (arg_cnt == 4 && !strcmp(args[0], "TEXT_BOTTOM")) {   current_cmd = CMD_TEXT_BOTTOM;
 1480              		.loc 3 707 27 discriminator 1 view .LVU401
 1481 0186 0028     		cmp	r0, #0
 1482 0188 B1D1     		bne	.L114
 707:Src/main.c    ****   } else if (arg_cnt == 4 && !strcmp(args[0], "TEXT_BOTTOM")) {   current_cmd = CMD_TEXT_BOTTOM;
 1483              		.loc 3 707 79 view .LVU402
 1484 018a 0824     		movs	r4, #8
 1485              	.LVL124:
 707:Src/main.c    ****   } else if (arg_cnt == 4 && !strcmp(args[0], "TEXT_BOTTOM")) {   current_cmd = CMD_TEXT_BOTTOM;
 1486              		.loc 3 707 79 view .LVU403
 1487 018c BAE7     		b	.L108
 1488              	.LVL125:
 1489              	.L123:
 724:Src/main.c    ****         HAL_GPIO_WritePin(Lampe_GPIO_Port, Lampe_Pin, 1);
 1490              		.loc 3 724 7 is_stmt 1 view .LVU404
 724:Src/main.c    ****         HAL_GPIO_WritePin(Lampe_GPIO_Port, Lampe_Pin, 1);
 1491              		.loc 3 724 11 is_stmt 0 view .LVU405
 1492 018e 0398     		ldr	r0, [sp, #12]
 1493 0190 FFF7FEFF 		bl	atoi
 1494              	.LVL126:
 724:Src/main.c    ****         HAL_GPIO_WritePin(Lampe_GPIO_Port, Lampe_Pin, 1);
 1495              		.loc 3 724 10 view .LVU406
 1496 0194 0446     		mov	r4, r0
 1497 0196 30B1     		cbz	r0, .L124
 725:Src/main.c    ****       } else {
 1498              		.loc 3 725 9 is_stmt 1 view .LVU407
 1499 0198 0122     		movs	r2, #1
 1500 019a 0421     		movs	r1, #4
 1501 019c 5F48     		ldr	r0, .L258+36
 1502 019e FFF7FEFF 		bl	HAL_GPIO_WritePin
 1503              	.LVL127:
1000:Src/main.c    **** }
 1504              		.loc 3 1000 10 is_stmt 0 view .LVU408
 1505 01a2 0024     		movs	r4, #0
 1506 01a4 6BE0     		b	.L91
 1507              	.L124:
 727:Src/main.c    ****       }
 1508              		.loc 3 727 9 is_stmt 1 view .LVU409
 1509 01a6 0022     		movs	r2, #0
 1510 01a8 0421     		movs	r1, #4
 1511 01aa 5C48     		ldr	r0, .L258+36
 1512 01ac FFF7FEFF 		bl	HAL_GPIO_WritePin
 1513              	.LVL128:
 1514 01b0 65E0     		b	.L91
 1515              	.L122:
 734:Src/main.c    ****         start_yellow = 1;
 1516              		.loc 3 734 7 view .LVU410
 734:Src/main.c    ****         start_yellow = 1;
 1517              		.loc 3 734 11 is_stmt 0 view .LVU411
 1518 01b2 0398     		ldr	r0, [sp, #12]
 1519 01b4 FFF7FEFF 		bl	atoi
 1520              	.LVL129:
 734:Src/main.c    ****         start_yellow = 1;
 1521              		.loc 3 734 10 view .LVU412
 1522 01b8 0446     		mov	r4, r0
 1523 01ba 20B1     		cbz	r0, .L125
ARM GAS  /tmp/ccDqKevX.s 			page 54


 735:Src/main.c    ****       } else {
 1524              		.loc 3 735 9 is_stmt 1 view .LVU413
 735:Src/main.c    ****       } else {
 1525              		.loc 3 735 22 is_stmt 0 view .LVU414
 1526 01bc 584B     		ldr	r3, .L258+40
 1527 01be 0122     		movs	r2, #1
 1528 01c0 1A70     		strb	r2, [r3]
1000:Src/main.c    **** }
 1529              		.loc 3 1000 10 view .LVU415
 1530 01c2 0024     		movs	r4, #0
 1531 01c4 5BE0     		b	.L91
 1532              	.L125:
 737:Src/main.c    ****       }
 1533              		.loc 3 737 9 is_stmt 1 view .LVU416
 737:Src/main.c    ****       }
 1534              		.loc 3 737 21 is_stmt 0 view .LVU417
 1535 01c6 574B     		ldr	r3, .L258+44
 1536 01c8 0122     		movs	r2, #1
 1537 01ca 1A70     		strb	r2, [r3]
 1538 01cc 57E0     		b	.L91
 1539              	.L121:
 744:Src/main.c    ****         for (int i=0; i<(28 * Panelanzahl); i++)
 1540              		.loc 3 744 7 is_stmt 1 view .LVU418
 744:Src/main.c    ****         for (int i=0; i<(28 * Panelanzahl); i++)
 1541              		.loc 3 744 11 is_stmt 0 view .LVU419
 1542 01ce 0398     		ldr	r0, [sp, #12]
 1543 01d0 FFF7FEFF 		bl	atoi
 1544              	.LVL130:
 744:Src/main.c    ****         for (int i=0; i<(28 * Panelanzahl); i++)
 1545              		.loc 3 744 10 view .LVU420
 1546 01d4 0446     		mov	r4, r0
 1547 01d6 88B9     		cbnz	r0, .L196
 1548              	.LBB12:
 748:Src/main.c    ****           dots[i] |= 0;
 1549              		.loc 3 748 18 view .LVU421
 1550 01d8 0246     		mov	r2, r0
 1551 01da 12E0     		b	.L127
 1552              	.LVL131:
 1553              	.L128:
 748:Src/main.c    ****           dots[i] |= 0;
 1554              		.loc 3 748 18 view .LVU422
 1555              	.LBE12:
 1556              	.LBB13:
 746:Src/main.c    ****       } else {
 1557              		.loc 3 746 11 is_stmt 1 discriminator 3 view .LVU423
 746:Src/main.c    ****       } else {
 1558              		.loc 3 746 19 is_stmt 0 discriminator 3 view .LVU424
 1559 01dc 524B     		ldr	r3, .L258+48
 1560 01de 1B68     		ldr	r3, [r3]
 1561 01e0 4FF0FF31 		mov	r1, #-1
 1562 01e4 43F82210 		str	r1, [r3, r2, lsl #2]
 745:Src/main.c    ****           dots[i] |= 0xFFFFFFFF;
 1563              		.loc 3 745 45 is_stmt 1 discriminator 3 view .LVU425
 745:Src/main.c    ****           dots[i] |= 0xFFFFFFFF;
 1564              		.loc 3 745 46 is_stmt 0 discriminator 3 view .LVU426
 1565 01e8 0132     		adds	r2, r2, #1
 1566              	.LVL132:
ARM GAS  /tmp/ccDqKevX.s 			page 55


 1567              	.L126:
 745:Src/main.c    ****           dots[i] |= 0xFFFFFFFF;
 1568              		.loc 3 745 23 is_stmt 1 discriminator 1 view .LVU427
 745:Src/main.c    ****           dots[i] |= 0xFFFFFFFF;
 1569              		.loc 3 745 29 is_stmt 0 discriminator 1 view .LVU428
 1570 01ea 504B     		ldr	r3, .L258+52
 1571 01ec 1B78     		ldrb	r3, [r3]	@ zero_extendqisi2
 1572 01ee C3EBC303 		rsb	r3, r3, r3, lsl #3
 745:Src/main.c    ****           dots[i] |= 0xFFFFFFFF;
 1573              		.loc 3 745 9 discriminator 1 view .LVU429
 1574 01f2 B2EB830F 		cmp	r2, r3, lsl #2
 1575 01f6 F1DB     		blt	.L128
 1576              	.LBE13:
1000:Src/main.c    **** }
 1577              		.loc 3 1000 10 view .LVU430
 1578 01f8 0024     		movs	r4, #0
 1579 01fa 40E0     		b	.L91
 1580              	.LVL133:
 1581              	.L196:
 1582              	.LBB14:
 745:Src/main.c    ****           dots[i] |= 0xFFFFFFFF;
 1583              		.loc 3 745 18 view .LVU431
 1584 01fc 0022     		movs	r2, #0
 1585 01fe F4E7     		b	.L126
 1586              	.LVL134:
 1587              	.L129:
 745:Src/main.c    ****           dots[i] |= 0xFFFFFFFF;
 1588              		.loc 3 745 18 view .LVU432
 1589              	.LBE14:
 1590              	.LBB15:
 749:Src/main.c    ****       }
 1591              		.loc 3 749 11 is_stmt 1 discriminator 3 view .LVU433
 748:Src/main.c    ****           dots[i] |= 0;
 1592              		.loc 3 748 45 discriminator 3 view .LVU434
 748:Src/main.c    ****           dots[i] |= 0;
 1593              		.loc 3 748 46 is_stmt 0 discriminator 3 view .LVU435
 1594 0200 0132     		adds	r2, r2, #1
 1595              	.LVL135:
 1596              	.L127:
 748:Src/main.c    ****           dots[i] |= 0;
 1597              		.loc 3 748 23 is_stmt 1 discriminator 1 view .LVU436
 748:Src/main.c    ****           dots[i] |= 0;
 1598              		.loc 3 748 29 is_stmt 0 discriminator 1 view .LVU437
 1599 0202 4A4B     		ldr	r3, .L258+52
 1600 0204 1B78     		ldrb	r3, [r3]	@ zero_extendqisi2
 1601 0206 C3EBC303 		rsb	r3, r3, r3, lsl #3
 748:Src/main.c    ****           dots[i] |= 0;
 1602              		.loc 3 748 9 discriminator 1 view .LVU438
 1603 020a B2EB830F 		cmp	r2, r3, lsl #2
 1604 020e F7DB     		blt	.L129
 1605 0210 35E0     		b	.L91
 1606              	.LVL136:
 1607              	.L119:
 748:Src/main.c    ****           dots[i] |= 0;
 1608              		.loc 3 748 9 discriminator 1 view .LVU439
 1609              	.LBE15:
 1610              	.LBB16:
ARM GAS  /tmp/ccDqKevX.s 			page 56


 756:Src/main.c    ****       uint32_t y = atoi(args[2]);
 1611              		.loc 3 756 7 is_stmt 1 view .LVU440
 756:Src/main.c    ****       uint32_t y = atoi(args[2]);
 1612              		.loc 3 756 20 is_stmt 0 view .LVU441
 1613 0212 0398     		ldr	r0, [sp, #12]
 1614 0214 FFF7FEFF 		bl	atoi
 1615              	.LVL137:
 1616 0218 0546     		mov	r5, r0
 1617              	.LVL138:
 757:Src/main.c    ****       if (x > (Panelanzahl * 28) - 1) { break; }
 1618              		.loc 3 757 7 is_stmt 1 view .LVU442
 757:Src/main.c    ****       if (x > (Panelanzahl * 28) - 1) { break; }
 1619              		.loc 3 757 20 is_stmt 0 view .LVU443
 1620 021a 0498     		ldr	r0, [sp, #16]
 1621              	.LVL139:
 757:Src/main.c    ****       if (x > (Panelanzahl * 28) - 1) { break; }
 1622              		.loc 3 757 20 view .LVU444
 1623 021c FFF7FEFF 		bl	atoi
 1624              	.LVL140:
 1625 0220 0646     		mov	r6, r0
 1626              	.LVL141:
 758:Src/main.c    ****       if (y > (20 - 1)) { break; }
 1627              		.loc 3 758 7 is_stmt 1 view .LVU445
 758:Src/main.c    ****       if (y > (20 - 1)) { break; }
 1628              		.loc 3 758 28 is_stmt 0 view .LVU446
 1629 0222 424B     		ldr	r3, .L258+52
 1630 0224 1B78     		ldrb	r3, [r3]	@ zero_extendqisi2
 1631 0226 C3EBC303 		rsb	r3, r3, r3, lsl #3
 1632 022a 9B00     		lsls	r3, r3, #2
 758:Src/main.c    ****       if (y > (20 - 1)) { break; }
 1633              		.loc 3 758 34 view .LVU447
 1634 022c 013B     		subs	r3, r3, #1
 758:Src/main.c    ****       if (y > (20 - 1)) { break; }
 1635              		.loc 3 758 10 view .LVU448
 1636 022e AB42     		cmp	r3, r5
 1637 0230 C0F09D82 		bcc	.L197
 759:Src/main.c    ****       if (atoi(args[3])) {
 1638              		.loc 3 759 7 is_stmt 1 view .LVU449
 759:Src/main.c    ****       if (atoi(args[3])) {
 1639              		.loc 3 759 10 is_stmt 0 view .LVU450
 1640 0234 1328     		cmp	r0, #19
 1641 0236 01D9     		bls	.L245
 1642              	.LBE16:
1000:Src/main.c    **** }
 1643              		.loc 3 1000 10 view .LVU451
 1644 0238 0024     		movs	r4, #0
 1645 023a 20E0     		b	.L91
 1646              	.L245:
 1647              	.LBB17:
 760:Src/main.c    **** 
 1648              		.loc 3 760 7 is_stmt 1 view .LVU452
 760:Src/main.c    **** 
 1649              		.loc 3 760 11 is_stmt 0 view .LVU453
 1650 023c 0598     		ldr	r0, [sp, #20]
 1651              	.LVL142:
 760:Src/main.c    **** 
 1652              		.loc 3 760 11 view .LVU454
ARM GAS  /tmp/ccDqKevX.s 			page 57


 1653 023e FFF7FEFF 		bl	atoi
 1654              	.LVL143:
 760:Src/main.c    **** 
 1655              		.loc 3 760 10 view .LVU455
 1656 0242 0446     		mov	r4, r0
 1657 0244 58B1     		cbz	r0, .L130
 763:Src/main.c    ****       
 1658              		.loc 3 763 9 is_stmt 1 view .LVU456
 763:Src/main.c    ****       
 1659              		.loc 3 763 17 is_stmt 0 view .LVU457
 1660 0246 384B     		ldr	r3, .L258+48
 1661 0248 1A68     		ldr	r2, [r3]
 763:Src/main.c    ****       
 1662              		.loc 3 763 42 view .LVU458
 1663 024a 0123     		movs	r3, #1
 1664 024c 03FA06F0 		lsl	r0, r3, r6
 763:Src/main.c    ****       
 1665              		.loc 3 763 17 view .LVU459
 1666 0250 52F82530 		ldr	r3, [r2, r5, lsl #2]
 1667 0254 0343     		orrs	r3, r3, r0
 1668 0256 42F82530 		str	r3, [r2, r5, lsl #2]
 1669              	.LBE17:
1000:Src/main.c    **** }
 1670              		.loc 3 1000 10 view .LVU460
 1671 025a 0024     		movs	r4, #0
 1672              	.LBB18:
 1673 025c 0FE0     		b	.L91
 1674              	.L130:
 768:Src/main.c    ****       }
 1675              		.loc 3 768 9 is_stmt 1 view .LVU461
 768:Src/main.c    ****       }
 1676              		.loc 3 768 17 is_stmt 0 view .LVU462
 1677 025e 324B     		ldr	r3, .L258+48
 1678 0260 1A68     		ldr	r2, [r3]
 768:Src/main.c    ****       }
 1679              		.loc 3 768 43 view .LVU463
 1680 0262 0123     		movs	r3, #1
 1681 0264 03FA06F0 		lsl	r0, r3, r6
 768:Src/main.c    ****       }
 1682              		.loc 3 768 17 view .LVU464
 1683 0268 52F82530 		ldr	r3, [r2, r5, lsl #2]
 1684 026c 23EA0003 		bic	r3, r3, r0
 1685 0270 42F82530 		str	r3, [r2, r5, lsl #2]
 1686 0274 03E0     		b	.L91
 1687              	.LVL144:
 1688              	.L120:
 768:Src/main.c    ****       }
 1689              		.loc 3 768 17 view .LVU465
 1690              	.LBE18:
 775:Src/main.c    ****       break;
 1691              		.loc 3 775 7 is_stmt 1 view .LVU466
 775:Src/main.c    ****       break;
 1692              		.loc 3 775 21 is_stmt 0 view .LVU467
 1693 0276 2E4B     		ldr	r3, .L258+56
 1694 0278 0122     		movs	r2, #1
 1695 027a 1A70     		strb	r2, [r3]
 776:Src/main.c    **** 
ARM GAS  /tmp/ccDqKevX.s 			page 58


 1696              		.loc 3 776 7 is_stmt 1 view .LVU468
1000:Src/main.c    **** }
 1697              		.loc 3 1000 10 is_stmt 0 view .LVU469
 1698 027c 0024     		movs	r4, #0
 1699              	.LVL145:
 1700              	.L91:
1001:Src/main.c    **** 
 1701              		.loc 3 1001 1 view .LVU470
 1702 027e 2046     		mov	r0, r4
 1703 0280 0CB0     		add	sp, sp, #48
 1704              	.LCFI15:
 1705              		.cfi_remember_state
 1706              		.cfi_def_cfa_offset 24
 1707              		@ sp needed
 1708 0282 BDE8F081 		pop	{r4, r5, r6, r7, r8, pc}
 1709              	.LVL146:
 1710              	.L115:
 1711              	.LCFI16:
 1712              		.cfi_restore_state
 1713              	.LBB19:
 784:Src/main.c    ****       if (text_laenge <= 0) { break; }
 1714              		.loc 3 784 7 is_stmt 1 view .LVU471
 784:Src/main.c    ****       if (text_laenge <= 0) { break; }
 1715              		.loc 3 784 36 is_stmt 0 view .LVU472
 1716 0286 059D     		ldr	r5, [sp, #20]
 1717              	.LVL147:
 784:Src/main.c    ****       if (text_laenge <= 0) { break; }
 1718              		.loc 3 784 25 view .LVU473
 1719 0288 2846     		mov	r0, r5
 1720 028a FFF7FEFF 		bl	strlen
 1721              	.LVL148:
 785:Src/main.c    **** 
 1722              		.loc 3 785 7 is_stmt 1 view .LVU474
 785:Src/main.c    **** 
 1723              		.loc 3 785 10 is_stmt 0 view .LVU475
 1724 028e 041E     		subs	r4, r0, #0
 1725 0290 01DC     		bgt	.L246
 1726              	.LBE19:
1000:Src/main.c    **** }
 1727              		.loc 3 1000 10 view .LVU476
 1728 0292 0024     		movs	r4, #0
 1729 0294 F3E7     		b	.L91
 1730              	.L246:
 1731              	.LBB26:
 788:Src/main.c    ****       if (font != 1 && font != 0)
 1732              		.loc 3 788 7 is_stmt 1 view .LVU477
 788:Src/main.c    ****       if (font != 1 && font != 0)
 1733              		.loc 3 788 18 is_stmt 0 view .LVU478
 1734 0296 0398     		ldr	r0, [sp, #12]
 1735              	.LVL149:
 788:Src/main.c    ****       if (font != 1 && font != 0)
 1736              		.loc 3 788 18 view .LVU479
 1737 0298 FFF7FEFF 		bl	atoi
 1738              	.LVL150:
 1739 029c 8046     		mov	r8, r0
 1740              	.LVL151:
 789:Src/main.c    ****         break;
ARM GAS  /tmp/ccDqKevX.s 			page 59


 1741              		.loc 3 789 7 is_stmt 1 view .LVU480
 789:Src/main.c    ****         break;
 1742              		.loc 3 789 10 is_stmt 0 view .LVU481
 1743 029e 0128     		cmp	r0, #1
 1744 02a0 01D9     		bls	.L247
 1745              	.LBE26:
1000:Src/main.c    **** }
 1746              		.loc 3 1000 10 view .LVU482
 1747 02a2 0024     		movs	r4, #0
 1748              	.LVL152:
1000:Src/main.c    **** }
 1749              		.loc 3 1000 10 view .LVU483
 1750 02a4 EBE7     		b	.L91
 1751              	.LVL153:
 1752              	.L247:
 1753              	.LBB27:
 791:Src/main.c    ****       unsigned char position = atoi(args[2]);
 1754              		.loc 3 791 7 is_stmt 1 view .LVU484
 792:Src/main.c    ****       if (args[2][0] == 'L' || args[2][0] == 'C' || args[2][0] == 'R') {
 1755              		.loc 3 792 7 view .LVU485
 792:Src/main.c    ****       if (args[2][0] == 'L' || args[2][0] == 'C' || args[2][0] == 'R') {
 1756              		.loc 3 792 41 is_stmt 0 view .LVU486
 1757 02a6 049E     		ldr	r6, [sp, #16]
 1758              	.LVL154:
 792:Src/main.c    ****       if (args[2][0] == 'L' || args[2][0] == 'C' || args[2][0] == 'R') {
 1759              		.loc 3 792 32 view .LVU487
 1760 02a8 3046     		mov	r0, r6
 1761              	.LVL155:
 792:Src/main.c    ****       if (args[2][0] == 'L' || args[2][0] == 'C' || args[2][0] == 'R') {
 1762              		.loc 3 792 32 view .LVU488
 1763 02aa FFF7FEFF 		bl	atoi
 1764              	.LVL156:
 792:Src/main.c    ****       if (args[2][0] == 'L' || args[2][0] == 'C' || args[2][0] == 'R') {
 1765              		.loc 3 792 21 view .LVU489
 1766 02ae C1B2     		uxtb	r1, r0
 1767              	.LVL157:
 793:Src/main.c    ****         offset_mode = 0;
 1768              		.loc 3 793 7 is_stmt 1 view .LVU490
 793:Src/main.c    ****         offset_mode = 0;
 1769              		.loc 3 793 18 is_stmt 0 view .LVU491
 1770 02b0 3678     		ldrb	r6, [r6]	@ zero_extendqisi2
 793:Src/main.c    ****         offset_mode = 0;
 1771              		.loc 3 793 10 view .LVU492
 1772 02b2 4C2E     		cmp	r6, #76
 1773 02b4 40D0     		beq	.L201
 793:Src/main.c    ****         offset_mode = 0;
 1774              		.loc 3 793 29 discriminator 1 view .LVU493
 1775 02b6 432E     		cmp	r6, #67
 1776 02b8 41D0     		beq	.L202
 793:Src/main.c    ****         offset_mode = 0;
 1777              		.loc 3 793 50 discriminator 2 view .LVU494
 1778 02ba 522E     		cmp	r6, #82
 1779 02bc 41D0     		beq	.L203
 797:Src/main.c    ****           offset_mode = 1;
 1780              		.loc 3 797 9 is_stmt 1 view .LVU495
 797:Src/main.c    ****           offset_mode = 1;
 1781              		.loc 3 797 28 is_stmt 0 view .LVU496
ARM GAS  /tmp/ccDqKevX.s 			page 60


 1782 02be 1B4A     		ldr	r2, .L258+52
 1783 02c0 1278     		ldrb	r2, [r2]	@ zero_extendqisi2
 1784 02c2 C2EBC202 		rsb	r2, r2, r2, lsl #3
 797:Src/main.c    ****           offset_mode = 1;
 1785              		.loc 3 797 12 view .LVU497
 1786 02c6 B1EB820F 		cmp	r1, r2, lsl #2
 1787 02ca 3CDB     		blt	.L204
 1788              	.LBE27:
1000:Src/main.c    **** }
 1789              		.loc 3 1000 10 view .LVU498
 1790 02cc 0024     		movs	r4, #0
 1791              	.LVL158:
1000:Src/main.c    **** }
 1792              		.loc 3 1000 10 view .LVU499
 1793 02ce D6E7     		b	.L91
 1794              	.LVL159:
 1795              	.L133:
 1796              	.LBB28:
 1797              	.LBB20:
 804:Src/main.c    ****       int text_breite = generate_text((unsigned char*)args[3], textbuffer_8px_UP, 0, text_laenge, f
 1798              		.loc 3 804 45 is_stmt 1 discriminator 3 view .LVU500
 804:Src/main.c    ****       int text_breite = generate_text((unsigned char*)args[3], textbuffer_8px_UP, 0, text_laenge, f
 1799              		.loc 3 804 66 is_stmt 0 discriminator 3 view .LVU501
 1800 02d0 184A     		ldr	r2, .L258+60
 1801 02d2 0021     		movs	r1, #0
 1802 02d4 D154     		strb	r1, [r2, r3]
 804:Src/main.c    ****       int text_breite = generate_text((unsigned char*)args[3], textbuffer_8px_UP, 0, text_laenge, f
 1803              		.loc 3 804 38 is_stmt 1 discriminator 3 view .LVU502
 804:Src/main.c    ****       int text_breite = generate_text((unsigned char*)args[3], textbuffer_8px_UP, 0, text_laenge, f
 1804              		.loc 3 804 39 is_stmt 0 discriminator 3 view .LVU503
 1805 02d6 0133     		adds	r3, r3, #1
 1806              	.LVL160:
 1807              	.L132:
 804:Src/main.c    ****       int text_breite = generate_text((unsigned char*)args[3], textbuffer_8px_UP, 0, text_laenge, f
 1808              		.loc 3 804 21 is_stmt 1 discriminator 1 view .LVU504
 804:Src/main.c    ****       int text_breite = generate_text((unsigned char*)args[3], textbuffer_8px_UP, 0, text_laenge, f
 1809              		.loc 3 804 7 is_stmt 0 discriminator 1 view .LVU505
 1810 02d8 C72B     		cmp	r3, #199
 1811 02da F9DD     		ble	.L133
 1812              	.LBE20:
 805:Src/main.c    ****       if (!text_breite) { break; }
 1813              		.loc 3 805 7 is_stmt 1 view .LVU506
 805:Src/main.c    ****       if (!text_breite) { break; }
 1814              		.loc 3 805 25 is_stmt 0 view .LVU507
 1815 02dc 5FFA88F3 		uxtb	r3, r8
 1816              	.LVL161:
 805:Src/main.c    ****       if (!text_breite) { break; }
 1817              		.loc 3 805 25 view .LVU508
 1818 02e0 0093     		str	r3, [sp]
 1819 02e2 2346     		mov	r3, r4
 1820 02e4 0022     		movs	r2, #0
 1821 02e6 1349     		ldr	r1, .L258+60
 1822 02e8 2846     		mov	r0, r5
 1823 02ea FFF7FEFF 		bl	generate_text
 1824              	.LVL162:
 806:Src/main.c    **** 
 1825              		.loc 3 806 7 is_stmt 1 view .LVU509
ARM GAS  /tmp/ccDqKevX.s 			page 61


 806:Src/main.c    **** 
 1826              		.loc 3 806 10 is_stmt 0 view .LVU510
 1827 02ee 0446     		mov	r4, r0
 1828              	.LVL163:
 806:Src/main.c    **** 
 1829              		.loc 3 806 10 view .LVU511
 1830 02f0 0028     		cmp	r0, #0
 1831 02f2 C4D0     		beq	.L91
 1832              	.LBB21:
 809:Src/main.c    ****         dots[i] = dots[i] & 0xFFFFF00F;
 1833              		.loc 3 809 16 view .LVU512
 1834 02f4 0023     		movs	r3, #0
 1835 02f6 32E0     		b	.L134
 1836              	.L259:
 1837              		.align	2
 1838              	.L258:
 1839 02f8 00000000 		.word	.LC1
 1840 02fc 48000000 		.word	.LC9
 1841 0300 04000000 		.word	.LC2
 1842 0304 0C000000 		.word	.LC3
 1843 0308 14000000 		.word	.LC4
 1844 030c 1C000000 		.word	.LC5
 1845 0310 28000000 		.word	.LC6
 1846 0314 30000000 		.word	.LC7
 1847 0318 3C000000 		.word	.LC8
 1848 031c 00080140 		.word	1073809408
 1849 0320 00000000 		.word	.LANCHOR6
 1850 0324 00000000 		.word	.LANCHOR7
 1851 0328 00000000 		.word	dots
 1852 032c 00000000 		.word	Panelanzahl
 1853 0330 00000000 		.word	.LANCHOR2
 1854 0334 00000000 		.word	textbuffer_8px_UP
 1855              	.LVL164:
 1856              	.L201:
 809:Src/main.c    ****         dots[i] = dots[i] & 0xFFFFF00F;
 1857              		.loc 3 809 16 view .LVU513
 1858              	.LBE21:
 794:Src/main.c    ****         position = args[2][0];
 1859              		.loc 3 794 21 view .LVU514
 1860 0338 0027     		movs	r7, #0
 1861              	.L131:
 1862              	.LVL165:
 798:Src/main.c    ****       }
 1863              		.loc 3 798 23 discriminator 1 view .LVU515
 1864 033a 0023     		movs	r3, #0
 1865 033c CCE7     		b	.L132
 1866              	.LVL166:
 1867              	.L202:
 794:Src/main.c    ****         position = args[2][0];
 1868              		.loc 3 794 21 view .LVU516
 1869 033e 0027     		movs	r7, #0
 1870 0340 FBE7     		b	.L131
 1871              	.L203:
 1872 0342 0027     		movs	r7, #0
 1873 0344 F9E7     		b	.L131
 1874              	.L204:
 792:Src/main.c    ****       if (args[2][0] == 'L' || args[2][0] == 'C' || args[2][0] == 'R') {
ARM GAS  /tmp/ccDqKevX.s 			page 62


 1875              		.loc 3 792 21 view .LVU517
 1876 0346 0E46     		mov	r6, r1
 798:Src/main.c    ****       }
 1877              		.loc 3 798 23 view .LVU518
 1878 0348 0127     		movs	r7, #1
 1879 034a F6E7     		b	.L131
 1880              	.LVL167:
 1881              	.L135:
 1882              	.LBB22:
 810:Src/main.c    **** 
 1883              		.loc 3 810 9 is_stmt 1 discriminator 3 view .LVU519
 810:Src/main.c    **** 
 1884              		.loc 3 810 23 is_stmt 0 discriminator 3 view .LVU520
 1885 034c A14A     		ldr	r2, .L260
 1886 034e 1168     		ldr	r1, [r2]
 1887 0350 51F82320 		ldr	r2, [r1, r3, lsl #2]
 810:Src/main.c    **** 
 1888              		.loc 3 810 27 discriminator 3 view .LVU521
 1889 0354 22F47F62 		bic	r2, r2, #4080
 810:Src/main.c    **** 
 1890              		.loc 3 810 17 discriminator 3 view .LVU522
 1891 0358 41F82320 		str	r2, [r1, r3, lsl #2]
 809:Src/main.c    ****         dots[i] = dots[i] & 0xFFFFF00F;
 1892              		.loc 3 809 43 is_stmt 1 discriminator 3 view .LVU523
 809:Src/main.c    ****         dots[i] = dots[i] & 0xFFFFF00F;
 1893              		.loc 3 809 44 is_stmt 0 discriminator 3 view .LVU524
 1894 035c 0133     		adds	r3, r3, #1
 1895              	.LVL168:
 1896              	.L134:
 809:Src/main.c    ****         dots[i] = dots[i] & 0xFFFFF00F;
 1897              		.loc 3 809 21 is_stmt 1 discriminator 1 view .LVU525
 809:Src/main.c    ****         dots[i] = dots[i] & 0xFFFFF00F;
 1898              		.loc 3 809 27 is_stmt 0 discriminator 1 view .LVU526
 1899 035e 9E4A     		ldr	r2, .L260+4
 1900 0360 1278     		ldrb	r2, [r2]	@ zero_extendqisi2
 1901 0362 C2EBC202 		rsb	r2, r2, r2, lsl #3
 809:Src/main.c    ****         dots[i] = dots[i] & 0xFFFFF00F;
 1902              		.loc 3 809 7 discriminator 1 view .LVU527
 1903 0366 B3EB820F 		cmp	r3, r2, lsl #2
 1904 036a EFDB     		blt	.L135
 1905              	.LBE22:
 813:Src/main.c    ****         for (int i=0; i<(28 * Panelanzahl); i++) {
 1906              		.loc 3 813 7 is_stmt 1 view .LVU528
 813:Src/main.c    ****         for (int i=0; i<(28 * Panelanzahl); i++) {
 1907              		.loc 3 813 11 is_stmt 0 view .LVU529
 1908 036c 9B4B     		ldr	r3, .L260+8
 1909              	.LVL169:
 813:Src/main.c    ****         for (int i=0; i<(28 * Panelanzahl); i++) {
 1910              		.loc 3 813 11 view .LVU530
 1911 036e 1B78     		ldrb	r3, [r3]	@ zero_extendqisi2
 813:Src/main.c    ****         for (int i=0; i<(28 * Panelanzahl); i++) {
 1912              		.loc 3 813 10 view .LVU531
 1913 0370 4BBB     		cbnz	r3, .L205
 1914              	.L137:
 819:Src/main.c    ****       if (text_breite < (28 * Panelanzahl)) {
 1915              		.loc 3 819 7 is_stmt 1 view .LVU532
 1916              	.LVL170:
ARM GAS  /tmp/ccDqKevX.s 			page 63


 820:Src/main.c    ****         offset = ((Panelanzahl * 28)/2) - (text_breite/2);
 1917              		.loc 3 820 7 view .LVU533
 820:Src/main.c    ****         offset = ((Panelanzahl * 28)/2) - (text_breite/2);
 1918              		.loc 3 820 29 is_stmt 0 view .LVU534
 1919 0372 994B     		ldr	r3, .L260+4
 1920 0374 1B78     		ldrb	r3, [r3]	@ zero_extendqisi2
 1921 0376 C3EBC302 		rsb	r2, r3, r3, lsl #3
 1922 037a 9000     		lsls	r0, r2, #2
 1923              	.LVL171:
 820:Src/main.c    ****         offset = ((Panelanzahl * 28)/2) - (text_breite/2);
 1924              		.loc 3 820 10 view .LVU535
 1925 037c B4EB820F 		cmp	r4, r2, lsl #2
 1926 0380 23DA     		bge	.L206
 821:Src/main.c    ****       }
 1927              		.loc 3 821 9 is_stmt 1 view .LVU536
 821:Src/main.c    ****       }
 1928              		.loc 3 821 41 is_stmt 0 view .LVU537
 1929 0382 5200     		lsls	r2, r2, #1
 1930 0384 D2B2     		uxtb	r2, r2
 821:Src/main.c    ****       }
 1931              		.loc 3 821 55 view .LVU538
 1932 0386 04EBD471 		add	r1, r4, r4, lsr #31
 1933 038a 4910     		asrs	r1, r1, #1
 1934 038c 4942     		rsbs	r1, r1, #0
 821:Src/main.c    ****       }
 1935              		.loc 3 821 41 view .LVU539
 1936 038e C9B2     		uxtb	r1, r1
 821:Src/main.c    ****       }
 1937              		.loc 3 821 16 view .LVU540
 1938 0390 0A44     		add	r2, r2, r1
 1939 0392 D2B2     		uxtb	r2, r2
 1940              	.LVL172:
 1941              	.L139:
 823:Src/main.c    ****         text_breite = (28 * Panelanzahl);
 1942              		.loc 3 823 7 is_stmt 1 view .LVU541
 823:Src/main.c    ****         text_breite = (28 * Panelanzahl);
 1943              		.loc 3 823 10 is_stmt 0 view .LVU542
 1944 0394 A042     		cmp	r0, r4
 1945 0396 00DC     		bgt	.L140
 824:Src/main.c    ****       if (position == 'L') // linksbündig
 1946              		.loc 3 824 21 view .LVU543
 1947 0398 0446     		mov	r4, r0
 1948              	.LVL173:
 1949              	.L140:
 825:Src/main.c    ****         offset = 0;
 1950              		.loc 3 825 7 is_stmt 1 view .LVU544
 825:Src/main.c    ****         offset = 0;
 1951              		.loc 3 825 10 is_stmt 0 view .LVU545
 1952 039a 4C2E     		cmp	r6, #76
 1953 039c 17D0     		beq	.L248
 1954              	.LVL174:
 1955              	.L141:
 827:Src/main.c    ****         if (text_breite <= (28 * Panelanzahl)) {
 1956              		.loc 3 827 7 is_stmt 1 view .LVU546
 827:Src/main.c    ****         if (text_breite <= (28 * Panelanzahl)) {
 1957              		.loc 3 827 10 is_stmt 0 view .LVU547
 1958 039e 522E     		cmp	r6, #82
ARM GAS  /tmp/ccDqKevX.s 			page 64


 1959 03a0 17D0     		beq	.L249
 1960              	.LVL175:
 1961              	.L142:
 832:Src/main.c    ****         offset = position;
 1962              		.loc 3 832 7 is_stmt 1 view .LVU548
 832:Src/main.c    ****         offset = position;
 1963              		.loc 3 832 10 is_stmt 0 view .LVU549
 1964 03a2 07B9     		cbnz	r7, .L143
 1965 03a4 1646     		mov	r6, r2
 1966              	.L143:
 1967              	.LVL176:
 834:Src/main.c    ****         dots[i+offset] |= (uint16_t)textbuffer_8px_UP[i] << 4;
 1968              		.loc 3 834 7 is_stmt 1 view .LVU550
 1969              	.LBB23:
 834:Src/main.c    ****         dots[i+offset] |= (uint16_t)textbuffer_8px_UP[i] << 4;
 1970              		.loc 3 834 12 view .LVU551
 834:Src/main.c    ****         dots[i+offset] |= (uint16_t)textbuffer_8px_UP[i] << 4;
 1971              		.loc 3 834 16 is_stmt 0 view .LVU552
 1972 03a6 0023     		movs	r3, #0
 834:Src/main.c    ****         dots[i+offset] |= (uint16_t)textbuffer_8px_UP[i] << 4;
 1973              		.loc 3 834 7 view .LVU553
 1974 03a8 2AE0     		b	.L144
 1975              	.LVL177:
 1976              	.L138:
 834:Src/main.c    ****         dots[i+offset] |= (uint16_t)textbuffer_8px_UP[i] << 4;
 1977              		.loc 3 834 7 view .LVU554
 1978              	.LBE23:
 1979              	.LBB24:
 815:Src/main.c    ****       }
 1980              		.loc 3 815 11 is_stmt 1 discriminator 3 view .LVU555
 815:Src/main.c    ****       }
 1981              		.loc 3 815 15 is_stmt 0 discriminator 3 view .LVU556
 1982 03aa 8A4B     		ldr	r3, .L260
 1983 03ac 1B68     		ldr	r3, [r3]
 815:Src/main.c    ****       }
 1984              		.loc 3 815 19 discriminator 3 view .LVU557
 1985 03ae 0021     		movs	r1, #0
 1986 03b0 43F82210 		str	r1, [r3, r2, lsl #2]
 814:Src/main.c    ****           dots[i] = 0; }
 1987              		.loc 3 814 45 is_stmt 1 discriminator 3 view .LVU558
 814:Src/main.c    ****           dots[i] = 0; }
 1988              		.loc 3 814 46 is_stmt 0 discriminator 3 view .LVU559
 1989 03b4 0132     		adds	r2, r2, #1
 1990              	.LVL178:
 1991              	.L136:
 814:Src/main.c    ****           dots[i] = 0; }
 1992              		.loc 3 814 23 is_stmt 1 discriminator 1 view .LVU560
 814:Src/main.c    ****           dots[i] = 0; }
 1993              		.loc 3 814 29 is_stmt 0 discriminator 1 view .LVU561
 1994 03b6 884B     		ldr	r3, .L260+4
 1995 03b8 1B78     		ldrb	r3, [r3]	@ zero_extendqisi2
 1996 03ba C3EBC303 		rsb	r3, r3, r3, lsl #3
 814:Src/main.c    ****           dots[i] = 0; }
 1997              		.loc 3 814 9 discriminator 1 view .LVU562
 1998 03be B2EB830F 		cmp	r2, r3, lsl #2
 1999 03c2 F2DB     		blt	.L138
 2000 03c4 D5E7     		b	.L137
ARM GAS  /tmp/ccDqKevX.s 			page 65


 2001              	.LVL179:
 2002              	.L205:
 814:Src/main.c    ****           dots[i] = 0; }
 2003              		.loc 3 814 18 view .LVU563
 2004 03c6 0022     		movs	r2, #0
 2005 03c8 F5E7     		b	.L136
 2006              	.LVL180:
 2007              	.L206:
 814:Src/main.c    ****           dots[i] = 0; }
 2008              		.loc 3 814 18 view .LVU564
 2009              	.LBE24:
 819:Src/main.c    ****       if (text_breite < (28 * Panelanzahl)) {
 2010              		.loc 3 819 15 view .LVU565
 2011 03ca 0022     		movs	r2, #0
 2012 03cc E2E7     		b	.L139
 2013              	.LVL181:
 2014              	.L248:
 826:Src/main.c    ****       if (position == 'R') { // rechtsbündig
 2015              		.loc 3 826 16 view .LVU566
 2016 03ce 0022     		movs	r2, #0
 2017              	.LVL182:
 826:Src/main.c    ****       if (position == 'R') { // rechtsbündig
 2018              		.loc 3 826 16 view .LVU567
 2019 03d0 E5E7     		b	.L141
 2020              	.LVL183:
 2021              	.L249:
 828:Src/main.c    ****           offset = (28 * Panelanzahl) - text_breite;
 2022              		.loc 3 828 9 is_stmt 1 view .LVU568
 828:Src/main.c    ****           offset = (28 * Panelanzahl) - text_breite;
 2023              		.loc 3 828 12 is_stmt 0 view .LVU569
 2024 03d2 A042     		cmp	r0, r4
 2025 03d4 07DB     		blt	.L209
 829:Src/main.c    ****         } else { offset = 0; }
 2026              		.loc 3 829 11 is_stmt 1 view .LVU570
 829:Src/main.c    ****         } else { offset = 0; }
 2027              		.loc 3 829 39 is_stmt 0 view .LVU571
 2028 03d6 C3EBC303 		rsb	r3, r3, r3, lsl #3
 2029 03da 9B00     		lsls	r3, r3, #2
 2030 03dc DBB2     		uxtb	r3, r3
 2031 03de E2B2     		uxtb	r2, r4
 2032              	.LVL184:
 829:Src/main.c    ****         } else { offset = 0; }
 2033              		.loc 3 829 18 view .LVU572
 2034 03e0 9B1A     		subs	r3, r3, r2
 2035 03e2 DAB2     		uxtb	r2, r3
 2036              	.LVL185:
 829:Src/main.c    ****         } else { offset = 0; }
 2037              		.loc 3 829 18 view .LVU573
 2038 03e4 DDE7     		b	.L142
 2039              	.L209:
 830:Src/main.c    ****       }
 2040              		.loc 3 830 25 view .LVU574
 2041 03e6 0022     		movs	r2, #0
 2042              	.LVL186:
 830:Src/main.c    ****       }
 2043              		.loc 3 830 25 view .LVU575
 2044 03e8 DBE7     		b	.L142
ARM GAS  /tmp/ccDqKevX.s 			page 66


 2045              	.LVL187:
 2046              	.L146:
 2047              	.LBB25:
 835:Src/main.c    ****       }
 2048              		.loc 3 835 9 is_stmt 1 discriminator 4 view .LVU576
 835:Src/main.c    ****       }
 2049              		.loc 3 835 24 is_stmt 0 discriminator 4 view .LVU577
 2050 03ea 7A4A     		ldr	r2, .L260
 2051 03ec 1068     		ldr	r0, [r2]
 835:Src/main.c    ****       }
 2052              		.loc 3 835 54 discriminator 4 view .LVU578
 2053 03ee 7C4A     		ldr	r2, .L260+12
 2054 03f0 D55C     		ldrb	r5, [r2, r3]	@ zero_extendqisi2
 835:Src/main.c    ****       }
 2055              		.loc 3 835 24 discriminator 4 view .LVU579
 2056 03f2 50F82120 		ldr	r2, [r0, r1, lsl #2]
 2057 03f6 42EA0512 		orr	r2, r2, r5, lsl #4
 2058 03fa 40F82120 		str	r2, [r0, r1, lsl #2]
 834:Src/main.c    ****         dots[i+offset] |= (uint16_t)textbuffer_8px_UP[i] << 4;
 2059              		.loc 3 834 65 is_stmt 1 discriminator 4 view .LVU580
 834:Src/main.c    ****         dots[i+offset] |= (uint16_t)textbuffer_8px_UP[i] << 4;
 2060              		.loc 3 834 66 is_stmt 0 discriminator 4 view .LVU581
 2061 03fe 0133     		adds	r3, r3, #1
 2062              	.LVL188:
 2063              	.L144:
 834:Src/main.c    ****         dots[i+offset] |= (uint16_t)textbuffer_8px_UP[i] << 4;
 2064              		.loc 3 834 21 is_stmt 1 discriminator 1 view .LVU582
 834:Src/main.c    ****         dots[i+offset] |= (uint16_t)textbuffer_8px_UP[i] << 4;
 2065              		.loc 3 834 7 is_stmt 0 discriminator 1 view .LVU583
 2066 0400 9C42     		cmp	r4, r3
 2067 0402 07DD     		ble	.L145
 834:Src/main.c    ****         dots[i+offset] |= (uint16_t)textbuffer_8px_UP[i] << 4;
 2068              		.loc 3 834 39 discriminator 3 view .LVU584
 2069 0404 F118     		adds	r1, r6, r3
 834:Src/main.c    ****         dots[i+offset] |= (uint16_t)textbuffer_8px_UP[i] << 4;
 2070              		.loc 3 834 50 discriminator 3 view .LVU585
 2071 0406 744A     		ldr	r2, .L260+4
 2072 0408 1278     		ldrb	r2, [r2]	@ zero_extendqisi2
 2073 040a C2EBC202 		rsb	r2, r2, r2, lsl #3
 834:Src/main.c    ****         dots[i+offset] |= (uint16_t)textbuffer_8px_UP[i] << 4;
 2074              		.loc 3 834 35 discriminator 3 view .LVU586
 2075 040e B1EB820F 		cmp	r1, r2, lsl #2
 2076 0412 EADB     		blt	.L146
 2077              	.L145:
 2078              	.LBE25:
 839:Src/main.c    ****         if (yellow_test_or_UP_DOWN) {
 2079              		.loc 3 839 7 is_stmt 1 view .LVU587
 839:Src/main.c    ****         if (yellow_test_or_UP_DOWN) {
 2080              		.loc 3 839 11 is_stmt 0 view .LVU588
 2081 0414 734B     		ldr	r3, .L260+16
 2082              	.LVL189:
 839:Src/main.c    ****         if (yellow_test_or_UP_DOWN) {
 2083              		.loc 3 839 11 view .LVU589
 2084 0416 1B78     		ldrb	r3, [r3]	@ zero_extendqisi2
 839:Src/main.c    ****         if (yellow_test_or_UP_DOWN) {
 2085              		.loc 3 839 10 view .LVU590
 2086 0418 2BB9     		cbnz	r3, .L147
ARM GAS  /tmp/ccDqKevX.s 			page 67


 840:Src/main.c    ****           start_refresh = 1;
 2087              		.loc 3 840 9 is_stmt 1 view .LVU591
 840:Src/main.c    ****           start_refresh = 1;
 2088              		.loc 3 840 13 is_stmt 0 view .LVU592
 2089 041a 704B     		ldr	r3, .L260+8
 2090 041c 1B78     		ldrb	r3, [r3]	@ zero_extendqisi2
 840:Src/main.c    ****           start_refresh = 1;
 2091              		.loc 3 840 12 view .LVU593
 2092 041e 4BB1     		cbz	r3, .L148
 841:Src/main.c    ****         } else {
 2093              		.loc 3 841 11 is_stmt 1 view .LVU594
 841:Src/main.c    ****         } else {
 2094              		.loc 3 841 25 is_stmt 0 view .LVU595
 2095 0420 714B     		ldr	r3, .L260+20
 2096 0422 0122     		movs	r2, #1
 2097 0424 1A70     		strb	r2, [r3]
 2098              	.L147:
 846:Src/main.c    ****       yellow_test_or_UP_DOWN = 0;
 2099              		.loc 3 846 7 is_stmt 1 view .LVU596
 846:Src/main.c    ****       yellow_test_or_UP_DOWN = 0;
 2100              		.loc 3 846 29 is_stmt 0 view .LVU597
 2101 0426 714B     		ldr	r3, .L260+24
 2102 0428 0122     		movs	r2, #1
 2103 042a 1A70     		strb	r2, [r3]
 847:Src/main.c    ****       break; }
 2104              		.loc 3 847 7 is_stmt 1 view .LVU598
 847:Src/main.c    ****       break; }
 2105              		.loc 3 847 30 is_stmt 0 view .LVU599
 2106 042c 0024     		movs	r4, #0
 2107              	.LVL190:
 847:Src/main.c    ****       break; }
 2108              		.loc 3 847 30 view .LVU600
 2109 042e 6B4B     		ldr	r3, .L260+8
 2110 0430 1C70     		strb	r4, [r3]
 848:Src/main.c    **** 
 2111              		.loc 3 848 7 is_stmt 1 view .LVU601
 2112 0432 24E7     		b	.L91
 2113              	.LVL191:
 2114              	.L148:
 843:Src/main.c    ****         }
 2115              		.loc 3 843 11 view .LVU602
 843:Src/main.c    ****         }
 2116              		.loc 3 843 32 is_stmt 0 view .LVU603
 2117 0434 6E4B     		ldr	r3, .L260+28
 2118 0436 0122     		movs	r2, #1
 2119 0438 1A70     		strb	r2, [r3]
 2120 043a F4E7     		b	.L147
 2121              	.LVL192:
 2122              	.L117:
 843:Src/main.c    ****         }
 2123              		.loc 3 843 32 view .LVU604
 2124              	.LBE28:
 2125              	.LBB29:
 856:Src/main.c    ****       if (text_laenge <= 0) { break; }
 2126              		.loc 3 856 7 is_stmt 1 view .LVU605
 856:Src/main.c    ****       if (text_laenge <= 0) { break; }
 2127              		.loc 3 856 36 is_stmt 0 view .LVU606
ARM GAS  /tmp/ccDqKevX.s 			page 68


 2128 043c 059D     		ldr	r5, [sp, #20]
 2129              	.LVL193:
 856:Src/main.c    ****       if (text_laenge <= 0) { break; }
 2130              		.loc 3 856 25 view .LVU607
 2131 043e 2846     		mov	r0, r5
 2132 0440 FFF7FEFF 		bl	strlen
 2133              	.LVL194:
 857:Src/main.c    **** 
 2134              		.loc 3 857 7 is_stmt 1 view .LVU608
 857:Src/main.c    **** 
 2135              		.loc 3 857 10 is_stmt 0 view .LVU609
 2136 0444 041E     		subs	r4, r0, #0
 2137 0446 01DC     		bgt	.L250
 2138              	.LBE29:
1000:Src/main.c    **** }
 2139              		.loc 3 1000 10 view .LVU610
 2140 0448 0024     		movs	r4, #0
 2141 044a 18E7     		b	.L91
 2142              	.L250:
 2143              	.LBB36:
 860:Src/main.c    ****       if (font != 1 && font != 0)
 2144              		.loc 3 860 7 is_stmt 1 view .LVU611
 860:Src/main.c    ****       if (font != 1 && font != 0)
 2145              		.loc 3 860 18 is_stmt 0 view .LVU612
 2146 044c 0398     		ldr	r0, [sp, #12]
 2147              	.LVL195:
 860:Src/main.c    ****       if (font != 1 && font != 0)
 2148              		.loc 3 860 18 view .LVU613
 2149 044e FFF7FEFF 		bl	atoi
 2150              	.LVL196:
 2151 0452 8046     		mov	r8, r0
 2152              	.LVL197:
 861:Src/main.c    ****         break;
 2153              		.loc 3 861 7 is_stmt 1 view .LVU614
 861:Src/main.c    ****         break;
 2154              		.loc 3 861 10 is_stmt 0 view .LVU615
 2155 0454 0128     		cmp	r0, #1
 2156 0456 01D9     		bls	.L251
 2157              	.LBE36:
1000:Src/main.c    **** }
 2158              		.loc 3 1000 10 view .LVU616
 2159 0458 0024     		movs	r4, #0
 2160              	.LVL198:
1000:Src/main.c    **** }
 2161              		.loc 3 1000 10 view .LVU617
 2162 045a 10E7     		b	.L91
 2163              	.LVL199:
 2164              	.L251:
 2165              	.LBB37:
 863:Src/main.c    ****       unsigned char position = atoi(args[2]);
 2166              		.loc 3 863 7 is_stmt 1 view .LVU618
 864:Src/main.c    ****       if (args[2][0] == 'L' || args[2][0] == 'C' || args[2][0] == 'R') {
 2167              		.loc 3 864 7 view .LVU619
 864:Src/main.c    ****       if (args[2][0] == 'L' || args[2][0] == 'C' || args[2][0] == 'R') {
 2168              		.loc 3 864 41 is_stmt 0 view .LVU620
 2169 045c 049E     		ldr	r6, [sp, #16]
 2170              	.LVL200:
ARM GAS  /tmp/ccDqKevX.s 			page 69


 864:Src/main.c    ****       if (args[2][0] == 'L' || args[2][0] == 'C' || args[2][0] == 'R') {
 2171              		.loc 3 864 32 view .LVU621
 2172 045e 3046     		mov	r0, r6
 2173              	.LVL201:
 864:Src/main.c    ****       if (args[2][0] == 'L' || args[2][0] == 'C' || args[2][0] == 'R') {
 2174              		.loc 3 864 32 view .LVU622
 2175 0460 FFF7FEFF 		bl	atoi
 2176              	.LVL202:
 864:Src/main.c    ****       if (args[2][0] == 'L' || args[2][0] == 'C' || args[2][0] == 'R') {
 2177              		.loc 3 864 21 view .LVU623
 2178 0464 C1B2     		uxtb	r1, r0
 2179              	.LVL203:
 865:Src/main.c    ****         offset_mode = 0;
 2180              		.loc 3 865 7 is_stmt 1 view .LVU624
 865:Src/main.c    ****         offset_mode = 0;
 2181              		.loc 3 865 18 is_stmt 0 view .LVU625
 2182 0466 3678     		ldrb	r6, [r6]	@ zero_extendqisi2
 865:Src/main.c    ****         offset_mode = 0;
 2183              		.loc 3 865 10 view .LVU626
 2184 0468 4C2E     		cmp	r6, #76
 2185 046a 21D0     		beq	.L212
 865:Src/main.c    ****         offset_mode = 0;
 2186              		.loc 3 865 29 discriminator 1 view .LVU627
 2187 046c 432E     		cmp	r6, #67
 2188 046e 22D0     		beq	.L213
 865:Src/main.c    ****         offset_mode = 0;
 2189              		.loc 3 865 50 discriminator 2 view .LVU628
 2190 0470 522E     		cmp	r6, #82
 2191 0472 22D0     		beq	.L214
 869:Src/main.c    ****           offset_mode = 1;
 2192              		.loc 3 869 9 is_stmt 1 view .LVU629
 869:Src/main.c    ****           offset_mode = 1;
 2193              		.loc 3 869 28 is_stmt 0 view .LVU630
 2194 0474 584A     		ldr	r2, .L260+4
 2195 0476 1278     		ldrb	r2, [r2]	@ zero_extendqisi2
 2196 0478 C2EBC202 		rsb	r2, r2, r2, lsl #3
 869:Src/main.c    ****           offset_mode = 1;
 2197              		.loc 3 869 12 view .LVU631
 2198 047c B1EB820F 		cmp	r1, r2, lsl #2
 2199 0480 1DDB     		blt	.L215
 2200              	.LBE37:
1000:Src/main.c    **** }
 2201              		.loc 3 1000 10 view .LVU632
 2202 0482 0024     		movs	r4, #0
 2203              	.LVL204:
1000:Src/main.c    **** }
 2204              		.loc 3 1000 10 view .LVU633
 2205 0484 FBE6     		b	.L91
 2206              	.LVL205:
 2207              	.L151:
 2208              	.LBB38:
 2209              	.LBB30:
 876:Src/main.c    ****       int text_breite = generate_text((unsigned char*)args[3], textbuffer_8px_UP, 0, text_laenge, f
 2210              		.loc 3 876 45 is_stmt 1 discriminator 3 view .LVU634
 876:Src/main.c    ****       int text_breite = generate_text((unsigned char*)args[3], textbuffer_8px_UP, 0, text_laenge, f
 2211              		.loc 3 876 66 is_stmt 0 discriminator 3 view .LVU635
 2212 0486 564A     		ldr	r2, .L260+12
ARM GAS  /tmp/ccDqKevX.s 			page 70


 2213 0488 0021     		movs	r1, #0
 2214 048a D154     		strb	r1, [r2, r3]
 876:Src/main.c    ****       int text_breite = generate_text((unsigned char*)args[3], textbuffer_8px_UP, 0, text_laenge, f
 2215              		.loc 3 876 38 is_stmt 1 discriminator 3 view .LVU636
 876:Src/main.c    ****       int text_breite = generate_text((unsigned char*)args[3], textbuffer_8px_UP, 0, text_laenge, f
 2216              		.loc 3 876 39 is_stmt 0 discriminator 3 view .LVU637
 2217 048c 0133     		adds	r3, r3, #1
 2218              	.LVL206:
 2219              	.L150:
 876:Src/main.c    ****       int text_breite = generate_text((unsigned char*)args[3], textbuffer_8px_UP, 0, text_laenge, f
 2220              		.loc 3 876 21 is_stmt 1 discriminator 1 view .LVU638
 876:Src/main.c    ****       int text_breite = generate_text((unsigned char*)args[3], textbuffer_8px_UP, 0, text_laenge, f
 2221              		.loc 3 876 7 is_stmt 0 discriminator 1 view .LVU639
 2222 048e C72B     		cmp	r3, #199
 2223 0490 F9DD     		ble	.L151
 2224              	.LBE30:
 877:Src/main.c    ****       if (!text_breite) { break; }
 2225              		.loc 3 877 7 is_stmt 1 view .LVU640
 877:Src/main.c    ****       if (!text_breite) { break; }
 2226              		.loc 3 877 25 is_stmt 0 view .LVU641
 2227 0492 5FFA88F3 		uxtb	r3, r8
 2228              	.LVL207:
 877:Src/main.c    ****       if (!text_breite) { break; }
 2229              		.loc 3 877 25 view .LVU642
 2230 0496 0093     		str	r3, [sp]
 2231 0498 2346     		mov	r3, r4
 2232 049a 0022     		movs	r2, #0
 2233 049c 5049     		ldr	r1, .L260+12
 2234 049e 2846     		mov	r0, r5
 2235 04a0 FFF7FEFF 		bl	generate_text
 2236              	.LVL208:
 878:Src/main.c    **** 
 2237              		.loc 3 878 7 is_stmt 1 view .LVU643
 878:Src/main.c    **** 
 2238              		.loc 3 878 10 is_stmt 0 view .LVU644
 2239 04a4 0446     		mov	r4, r0
 2240              	.LVL209:
 878:Src/main.c    **** 
 2241              		.loc 3 878 10 view .LVU645
 2242 04a6 0028     		cmp	r0, #0
 2243 04a8 3FF4E9AE 		beq	.L91
 2244              	.LBB31:
 881:Src/main.c    ****         dots[i] = dots[i] & 0xFFFFFF00;
 2245              		.loc 3 881 16 view .LVU646
 2246 04ac 0023     		movs	r3, #0
 2247 04ae 12E0     		b	.L152
 2248              	.LVL210:
 2249              	.L212:
 881:Src/main.c    ****         dots[i] = dots[i] & 0xFFFFFF00;
 2250              		.loc 3 881 16 view .LVU647
 2251              	.LBE31:
 866:Src/main.c    ****         position = args[2][0];
 2252              		.loc 3 866 21 view .LVU648
 2253 04b0 0027     		movs	r7, #0
 2254              	.L149:
 2255              	.LVL211:
 870:Src/main.c    ****       }
ARM GAS  /tmp/ccDqKevX.s 			page 71


 2256              		.loc 3 870 23 discriminator 1 view .LVU649
 2257 04b2 0023     		movs	r3, #0
 2258 04b4 EBE7     		b	.L150
 2259              	.LVL212:
 2260              	.L213:
 866:Src/main.c    ****         position = args[2][0];
 2261              		.loc 3 866 21 view .LVU650
 2262 04b6 0027     		movs	r7, #0
 2263 04b8 FBE7     		b	.L149
 2264              	.L214:
 2265 04ba 0027     		movs	r7, #0
 2266 04bc F9E7     		b	.L149
 2267              	.L215:
 864:Src/main.c    ****       if (args[2][0] == 'L' || args[2][0] == 'C' || args[2][0] == 'R') {
 2268              		.loc 3 864 21 view .LVU651
 2269 04be 0E46     		mov	r6, r1
 870:Src/main.c    ****       }
 2270              		.loc 3 870 23 view .LVU652
 2271 04c0 0127     		movs	r7, #1
 2272 04c2 F6E7     		b	.L149
 2273              	.LVL213:
 2274              	.L153:
 2275              	.LBB32:
 882:Src/main.c    ****       
 2276              		.loc 3 882 9 is_stmt 1 discriminator 3 view .LVU653
 882:Src/main.c    ****       
 2277              		.loc 3 882 23 is_stmt 0 discriminator 3 view .LVU654
 2278 04c4 434A     		ldr	r2, .L260
 2279 04c6 1168     		ldr	r1, [r2]
 2280 04c8 51F82320 		ldr	r2, [r1, r3, lsl #2]
 882:Src/main.c    ****       
 2281              		.loc 3 882 27 discriminator 3 view .LVU655
 2282 04cc 22F0FF02 		bic	r2, r2, #255
 882:Src/main.c    ****       
 2283              		.loc 3 882 17 discriminator 3 view .LVU656
 2284 04d0 41F82320 		str	r2, [r1, r3, lsl #2]
 881:Src/main.c    ****         dots[i] = dots[i] & 0xFFFFFF00;
 2285              		.loc 3 881 43 is_stmt 1 discriminator 3 view .LVU657
 881:Src/main.c    ****         dots[i] = dots[i] & 0xFFFFFF00;
 2286              		.loc 3 881 44 is_stmt 0 discriminator 3 view .LVU658
 2287 04d4 0133     		adds	r3, r3, #1
 2288              	.LVL214:
 2289              	.L152:
 881:Src/main.c    ****         dots[i] = dots[i] & 0xFFFFFF00;
 2290              		.loc 3 881 21 is_stmt 1 discriminator 1 view .LVU659
 881:Src/main.c    ****         dots[i] = dots[i] & 0xFFFFFF00;
 2291              		.loc 3 881 27 is_stmt 0 discriminator 1 view .LVU660
 2292 04d6 404A     		ldr	r2, .L260+4
 2293 04d8 1278     		ldrb	r2, [r2]	@ zero_extendqisi2
 2294 04da C2EBC202 		rsb	r2, r2, r2, lsl #3
 881:Src/main.c    ****         dots[i] = dots[i] & 0xFFFFFF00;
 2295              		.loc 3 881 7 discriminator 1 view .LVU661
 2296 04de B3EB820F 		cmp	r3, r2, lsl #2
 2297 04e2 EFDB     		blt	.L153
 2298              	.LBE32:
 885:Src/main.c    ****         for (int i=0; i<(28 * Panelanzahl); i++) {
 2299              		.loc 3 885 7 is_stmt 1 view .LVU662
ARM GAS  /tmp/ccDqKevX.s 			page 72


 885:Src/main.c    ****         for (int i=0; i<(28 * Panelanzahl); i++) {
 2300              		.loc 3 885 11 is_stmt 0 view .LVU663
 2301 04e4 414B     		ldr	r3, .L260+24
 2302              	.LVL215:
 885:Src/main.c    ****         for (int i=0; i<(28 * Panelanzahl); i++) {
 2303              		.loc 3 885 11 view .LVU664
 2304 04e6 1B78     		ldrb	r3, [r3]	@ zero_extendqisi2
 885:Src/main.c    ****         for (int i=0; i<(28 * Panelanzahl); i++) {
 2305              		.loc 3 885 10 view .LVU665
 2306 04e8 4BBB     		cbnz	r3, .L216
 2307              	.L155:
 891:Src/main.c    ****       if (text_breite < (28 * Panelanzahl)) {
 2308              		.loc 3 891 7 is_stmt 1 view .LVU666
 2309              	.LVL216:
 892:Src/main.c    ****         offset = ((Panelanzahl * 28)/2) - (text_breite/2);
 2310              		.loc 3 892 7 view .LVU667
 892:Src/main.c    ****         offset = ((Panelanzahl * 28)/2) - (text_breite/2);
 2311              		.loc 3 892 29 is_stmt 0 view .LVU668
 2312 04ea 3B4B     		ldr	r3, .L260+4
 2313 04ec 1B78     		ldrb	r3, [r3]	@ zero_extendqisi2
 2314 04ee C3EBC302 		rsb	r2, r3, r3, lsl #3
 2315 04f2 9000     		lsls	r0, r2, #2
 2316              	.LVL217:
 892:Src/main.c    ****         offset = ((Panelanzahl * 28)/2) - (text_breite/2);
 2317              		.loc 3 892 10 view .LVU669
 2318 04f4 B4EB820F 		cmp	r4, r2, lsl #2
 2319 04f8 23DA     		bge	.L217
 893:Src/main.c    ****       }
 2320              		.loc 3 893 9 is_stmt 1 view .LVU670
 893:Src/main.c    ****       }
 2321              		.loc 3 893 41 is_stmt 0 view .LVU671
 2322 04fa 5200     		lsls	r2, r2, #1
 2323 04fc D2B2     		uxtb	r2, r2
 893:Src/main.c    ****       }
 2324              		.loc 3 893 55 view .LVU672
 2325 04fe 04EBD471 		add	r1, r4, r4, lsr #31
 2326 0502 4910     		asrs	r1, r1, #1
 2327 0504 4942     		rsbs	r1, r1, #0
 893:Src/main.c    ****       }
 2328              		.loc 3 893 41 view .LVU673
 2329 0506 C9B2     		uxtb	r1, r1
 893:Src/main.c    ****       }
 2330              		.loc 3 893 16 view .LVU674
 2331 0508 0A44     		add	r2, r2, r1
 2332 050a D2B2     		uxtb	r2, r2
 2333              	.LVL218:
 2334              	.L157:
 895:Src/main.c    ****         text_breite = (28 * Panelanzahl);
 2335              		.loc 3 895 7 is_stmt 1 view .LVU675
 895:Src/main.c    ****         text_breite = (28 * Panelanzahl);
 2336              		.loc 3 895 10 is_stmt 0 view .LVU676
 2337 050c A042     		cmp	r0, r4
 2338 050e 00DC     		bgt	.L158
 896:Src/main.c    ****       if (position == 'L') // linksbündig
 2339              		.loc 3 896 21 view .LVU677
 2340 0510 0446     		mov	r4, r0
 2341              	.LVL219:
ARM GAS  /tmp/ccDqKevX.s 			page 73


 2342              	.L158:
 897:Src/main.c    ****         offset = 0;
 2343              		.loc 3 897 7 is_stmt 1 view .LVU678
 897:Src/main.c    ****         offset = 0;
 2344              		.loc 3 897 10 is_stmt 0 view .LVU679
 2345 0512 4C2E     		cmp	r6, #76
 2346 0514 17D0     		beq	.L252
 2347              	.LVL220:
 2348              	.L159:
 899:Src/main.c    ****         if (text_breite <= (28 * Panelanzahl)) {
 2349              		.loc 3 899 7 is_stmt 1 view .LVU680
 899:Src/main.c    ****         if (text_breite <= (28 * Panelanzahl)) {
 2350              		.loc 3 899 10 is_stmt 0 view .LVU681
 2351 0516 522E     		cmp	r6, #82
 2352 0518 17D0     		beq	.L253
 2353              	.LVL221:
 2354              	.L160:
 904:Src/main.c    ****         offset = position;
 2355              		.loc 3 904 7 is_stmt 1 view .LVU682
 904:Src/main.c    ****         offset = position;
 2356              		.loc 3 904 10 is_stmt 0 view .LVU683
 2357 051a 07B9     		cbnz	r7, .L161
 2358 051c 1646     		mov	r6, r2
 2359              	.L161:
 2360              	.LVL222:
 906:Src/main.c    ****         dots[i+offset] |= (uint16_t)textbuffer_8px_UP[i];
 2361              		.loc 3 906 7 is_stmt 1 view .LVU684
 2362              	.LBB33:
 906:Src/main.c    ****         dots[i+offset] |= (uint16_t)textbuffer_8px_UP[i];
 2363              		.loc 3 906 12 view .LVU685
 906:Src/main.c    ****         dots[i+offset] |= (uint16_t)textbuffer_8px_UP[i];
 2364              		.loc 3 906 16 is_stmt 0 view .LVU686
 2365 051e 0023     		movs	r3, #0
 906:Src/main.c    ****         dots[i+offset] |= (uint16_t)textbuffer_8px_UP[i];
 2366              		.loc 3 906 7 view .LVU687
 2367 0520 29E0     		b	.L162
 2368              	.LVL223:
 2369              	.L156:
 906:Src/main.c    ****         dots[i+offset] |= (uint16_t)textbuffer_8px_UP[i];
 2370              		.loc 3 906 7 view .LVU688
 2371              	.LBE33:
 2372              	.LBB34:
 887:Src/main.c    ****       }
 2373              		.loc 3 887 11 is_stmt 1 discriminator 3 view .LVU689
 887:Src/main.c    ****       }
 2374              		.loc 3 887 15 is_stmt 0 discriminator 3 view .LVU690
 2375 0522 2C4B     		ldr	r3, .L260
 2376 0524 1B68     		ldr	r3, [r3]
 887:Src/main.c    ****       }
 2377              		.loc 3 887 19 discriminator 3 view .LVU691
 2378 0526 0021     		movs	r1, #0
 2379 0528 43F82210 		str	r1, [r3, r2, lsl #2]
 886:Src/main.c    ****           dots[i] = 0; }
 2380              		.loc 3 886 45 is_stmt 1 discriminator 3 view .LVU692
 886:Src/main.c    ****           dots[i] = 0; }
 2381              		.loc 3 886 46 is_stmt 0 discriminator 3 view .LVU693
 2382 052c 0132     		adds	r2, r2, #1
ARM GAS  /tmp/ccDqKevX.s 			page 74


 2383              	.LVL224:
 2384              	.L154:
 886:Src/main.c    ****           dots[i] = 0; }
 2385              		.loc 3 886 23 is_stmt 1 discriminator 1 view .LVU694
 886:Src/main.c    ****           dots[i] = 0; }
 2386              		.loc 3 886 29 is_stmt 0 discriminator 1 view .LVU695
 2387 052e 2A4B     		ldr	r3, .L260+4
 2388 0530 1B78     		ldrb	r3, [r3]	@ zero_extendqisi2
 2389 0532 C3EBC303 		rsb	r3, r3, r3, lsl #3
 886:Src/main.c    ****           dots[i] = 0; }
 2390              		.loc 3 886 9 discriminator 1 view .LVU696
 2391 0536 B2EB830F 		cmp	r2, r3, lsl #2
 2392 053a F2DB     		blt	.L156
 2393 053c D5E7     		b	.L155
 2394              	.LVL225:
 2395              	.L216:
 886:Src/main.c    ****           dots[i] = 0; }
 2396              		.loc 3 886 18 view .LVU697
 2397 053e 0022     		movs	r2, #0
 2398 0540 F5E7     		b	.L154
 2399              	.LVL226:
 2400              	.L217:
 886:Src/main.c    ****           dots[i] = 0; }
 2401              		.loc 3 886 18 view .LVU698
 2402              	.LBE34:
 891:Src/main.c    ****       if (text_breite < (28 * Panelanzahl)) {
 2403              		.loc 3 891 15 view .LVU699
 2404 0542 0022     		movs	r2, #0
 2405 0544 E2E7     		b	.L157
 2406              	.LVL227:
 2407              	.L252:
 898:Src/main.c    ****       if (position == 'R') { // rechtsbündig
 2408              		.loc 3 898 16 view .LVU700
 2409 0546 0022     		movs	r2, #0
 2410              	.LVL228:
 898:Src/main.c    ****       if (position == 'R') { // rechtsbündig
 2411              		.loc 3 898 16 view .LVU701
 2412 0548 E5E7     		b	.L159
 2413              	.LVL229:
 2414              	.L253:
 900:Src/main.c    ****           offset = (28 * Panelanzahl) - text_breite;
 2415              		.loc 3 900 9 is_stmt 1 view .LVU702
 900:Src/main.c    ****           offset = (28 * Panelanzahl) - text_breite;
 2416              		.loc 3 900 12 is_stmt 0 view .LVU703
 2417 054a A042     		cmp	r0, r4
 2418 054c 07DB     		blt	.L220
 901:Src/main.c    ****         } else { offset = 0; }
 2419              		.loc 3 901 11 is_stmt 1 view .LVU704
 901:Src/main.c    ****         } else { offset = 0; }
 2420              		.loc 3 901 39 is_stmt 0 view .LVU705
 2421 054e C3EBC303 		rsb	r3, r3, r3, lsl #3
 2422 0552 9B00     		lsls	r3, r3, #2
 2423 0554 DBB2     		uxtb	r3, r3
 2424 0556 E2B2     		uxtb	r2, r4
 2425              	.LVL230:
 901:Src/main.c    ****         } else { offset = 0; }
 2426              		.loc 3 901 18 view .LVU706
ARM GAS  /tmp/ccDqKevX.s 			page 75


 2427 0558 9B1A     		subs	r3, r3, r2
 2428 055a DAB2     		uxtb	r2, r3
 2429              	.LVL231:
 901:Src/main.c    ****         } else { offset = 0; }
 2430              		.loc 3 901 18 view .LVU707
 2431 055c DDE7     		b	.L160
 2432              	.L220:
 902:Src/main.c    ****       }
 2433              		.loc 3 902 25 view .LVU708
 2434 055e 0022     		movs	r2, #0
 2435              	.LVL232:
 902:Src/main.c    ****       }
 2436              		.loc 3 902 25 view .LVU709
 2437 0560 DBE7     		b	.L160
 2438              	.LVL233:
 2439              	.L164:
 2440              	.LBB35:
 907:Src/main.c    ****       }
 2441              		.loc 3 907 9 is_stmt 1 discriminator 4 view .LVU710
 907:Src/main.c    ****       }
 2442              		.loc 3 907 24 is_stmt 0 discriminator 4 view .LVU711
 2443 0562 1C4A     		ldr	r2, .L260
 2444 0564 1068     		ldr	r0, [r2]
 907:Src/main.c    ****       }
 2445              		.loc 3 907 54 discriminator 4 view .LVU712
 2446 0566 1E4A     		ldr	r2, .L260+12
 2447 0568 D55C     		ldrb	r5, [r2, r3]	@ zero_extendqisi2
 907:Src/main.c    ****       }
 2448              		.loc 3 907 24 discriminator 4 view .LVU713
 2449 056a 50F82120 		ldr	r2, [r0, r1, lsl #2]
 2450 056e 2A43     		orrs	r2, r2, r5
 2451 0570 40F82120 		str	r2, [r0, r1, lsl #2]
 906:Src/main.c    ****         dots[i+offset] |= (uint16_t)textbuffer_8px_UP[i];
 2452              		.loc 3 906 65 is_stmt 1 discriminator 4 view .LVU714
 906:Src/main.c    ****         dots[i+offset] |= (uint16_t)textbuffer_8px_UP[i];
 2453              		.loc 3 906 66 is_stmt 0 discriminator 4 view .LVU715
 2454 0574 0133     		adds	r3, r3, #1
 2455              	.LVL234:
 2456              	.L162:
 906:Src/main.c    ****         dots[i+offset] |= (uint16_t)textbuffer_8px_UP[i];
 2457              		.loc 3 906 21 is_stmt 1 discriminator 1 view .LVU716
 906:Src/main.c    ****         dots[i+offset] |= (uint16_t)textbuffer_8px_UP[i];
 2458              		.loc 3 906 7 is_stmt 0 discriminator 1 view .LVU717
 2459 0576 9C42     		cmp	r4, r3
 2460 0578 07DD     		ble	.L163
 906:Src/main.c    ****         dots[i+offset] |= (uint16_t)textbuffer_8px_UP[i];
 2461              		.loc 3 906 39 discriminator 3 view .LVU718
 2462 057a F118     		adds	r1, r6, r3
 906:Src/main.c    ****         dots[i+offset] |= (uint16_t)textbuffer_8px_UP[i];
 2463              		.loc 3 906 50 discriminator 3 view .LVU719
 2464 057c 164A     		ldr	r2, .L260+4
 2465 057e 1278     		ldrb	r2, [r2]	@ zero_extendqisi2
 2466 0580 C2EBC202 		rsb	r2, r2, r2, lsl #3
 906:Src/main.c    ****         dots[i+offset] |= (uint16_t)textbuffer_8px_UP[i];
 2467              		.loc 3 906 35 discriminator 3 view .LVU720
 2468 0584 B1EB820F 		cmp	r1, r2, lsl #2
 2469 0588 EBDB     		blt	.L164
ARM GAS  /tmp/ccDqKevX.s 			page 76


 2470              	.L163:
 2471              	.LBE35:
 911:Src/main.c    ****         if (yellow_test_or_center) {
 2472              		.loc 3 911 7 is_stmt 1 view .LVU721
 911:Src/main.c    ****         if (yellow_test_or_center) {
 2473              		.loc 3 911 11 is_stmt 0 view .LVU722
 2474 058a 164B     		ldr	r3, .L260+16
 2475              	.LVL235:
 911:Src/main.c    ****         if (yellow_test_or_center) {
 2476              		.loc 3 911 11 view .LVU723
 2477 058c 1B78     		ldrb	r3, [r3]	@ zero_extendqisi2
 911:Src/main.c    ****         if (yellow_test_or_center) {
 2478              		.loc 3 911 10 view .LVU724
 2479 058e 2BB9     		cbnz	r3, .L165
 912:Src/main.c    ****           start_refresh = 1;
 2480              		.loc 3 912 9 is_stmt 1 view .LVU725
 912:Src/main.c    ****           start_refresh = 1;
 2481              		.loc 3 912 13 is_stmt 0 view .LVU726
 2482 0590 164B     		ldr	r3, .L260+24
 2483 0592 1B78     		ldrb	r3, [r3]	@ zero_extendqisi2
 912:Src/main.c    ****           start_refresh = 1;
 2484              		.loc 3 912 12 view .LVU727
 2485 0594 4BB1     		cbz	r3, .L166
 913:Src/main.c    ****         } else {
 2486              		.loc 3 913 11 is_stmt 1 view .LVU728
 913:Src/main.c    ****         } else {
 2487              		.loc 3 913 25 is_stmt 0 view .LVU729
 2488 0596 144B     		ldr	r3, .L260+20
 2489 0598 0122     		movs	r2, #1
 2490 059a 1A70     		strb	r2, [r3]
 2491              	.L165:
 918:Src/main.c    ****       yellow_test_or_UP_DOWN = 1;
 2492              		.loc 3 918 7 is_stmt 1 view .LVU730
 918:Src/main.c    ****       yellow_test_or_UP_DOWN = 1;
 2493              		.loc 3 918 29 is_stmt 0 view .LVU731
 2494 059c 0024     		movs	r4, #0
 2495              	.LVL236:
 918:Src/main.c    ****       yellow_test_or_UP_DOWN = 1;
 2496              		.loc 3 918 29 view .LVU732
 2497 059e 134B     		ldr	r3, .L260+24
 2498 05a0 1C70     		strb	r4, [r3]
 919:Src/main.c    ****       break; }
 2499              		.loc 3 919 7 is_stmt 1 view .LVU733
 919:Src/main.c    ****       break; }
 2500              		.loc 3 919 30 is_stmt 0 view .LVU734
 2501 05a2 0E4B     		ldr	r3, .L260+8
 2502 05a4 0122     		movs	r2, #1
 2503 05a6 1A70     		strb	r2, [r3]
 920:Src/main.c    **** 
 2504              		.loc 3 920 7 is_stmt 1 view .LVU735
 2505 05a8 69E6     		b	.L91
 2506              	.LVL237:
 2507              	.L166:
 915:Src/main.c    ****         }
 2508              		.loc 3 915 11 view .LVU736
 915:Src/main.c    ****         }
 2509              		.loc 3 915 28 is_stmt 0 view .LVU737
ARM GAS  /tmp/ccDqKevX.s 			page 77


 2510 05aa 124B     		ldr	r3, .L260+32
 2511 05ac 0122     		movs	r2, #1
 2512 05ae 1A70     		strb	r2, [r3]
 2513 05b0 F4E7     		b	.L165
 2514              	.LVL238:
 2515              	.L118:
 915:Src/main.c    ****         }
 2516              		.loc 3 915 28 view .LVU738
 2517              	.LBE38:
 2518              	.LBB39:
 928:Src/main.c    ****       if (text_laenge <= 0) { break; }
 2519              		.loc 3 928 7 is_stmt 1 view .LVU739
 928:Src/main.c    ****       if (text_laenge <= 0) { break; }
 2520              		.loc 3 928 36 is_stmt 0 view .LVU740
 2521 05b2 059D     		ldr	r5, [sp, #20]
 2522              	.LVL239:
 928:Src/main.c    ****       if (text_laenge <= 0) { break; }
 2523              		.loc 3 928 25 view .LVU741
 2524 05b4 2846     		mov	r0, r5
 2525 05b6 FFF7FEFF 		bl	strlen
 2526              	.LVL240:
 929:Src/main.c    **** 
 2527              		.loc 3 929 7 is_stmt 1 view .LVU742
 929:Src/main.c    **** 
 2528              		.loc 3 929 10 is_stmt 0 view .LVU743
 2529 05ba 041E     		subs	r4, r0, #0
 2530 05bc 01DC     		bgt	.L254
 2531              	.LBE39:
1000:Src/main.c    **** }
 2532              		.loc 3 1000 10 view .LVU744
 2533 05be 0024     		movs	r4, #0
 2534 05c0 5DE6     		b	.L91
 2535              	.L254:
 2536              	.LBB46:
 932:Src/main.c    ****       if (font != 1 && font != 0)
 2537              		.loc 3 932 7 is_stmt 1 view .LVU745
 932:Src/main.c    ****       if (font != 1 && font != 0)
 2538              		.loc 3 932 18 is_stmt 0 view .LVU746
 2539 05c2 0398     		ldr	r0, [sp, #12]
 2540              	.LVL241:
 932:Src/main.c    ****       if (font != 1 && font != 0)
 2541              		.loc 3 932 18 view .LVU747
 2542 05c4 FFF7FEFF 		bl	atoi
 2543              	.LVL242:
 2544 05c8 8046     		mov	r8, r0
 2545              	.LVL243:
 933:Src/main.c    ****         break;
 2546              		.loc 3 933 7 is_stmt 1 view .LVU748
 933:Src/main.c    ****         break;
 2547              		.loc 3 933 10 is_stmt 0 view .LVU749
 2548 05ca 0128     		cmp	r0, #1
 2549 05cc 14D9     		bls	.L255
 2550              	.LBE46:
1000:Src/main.c    **** }
 2551              		.loc 3 1000 10 view .LVU750
 2552 05ce 0024     		movs	r4, #0
 2553              	.LVL244:
ARM GAS  /tmp/ccDqKevX.s 			page 78


1000:Src/main.c    **** }
 2554              		.loc 3 1000 10 view .LVU751
 2555 05d0 55E6     		b	.L91
 2556              	.L261:
 2557 05d2 00BF     		.align	2
 2558              	.L260:
 2559 05d4 00000000 		.word	dots
 2560 05d8 00000000 		.word	Panelanzahl
 2561 05dc 00000000 		.word	.LANCHOR14
 2562 05e0 00000000 		.word	textbuffer_8px_UP
 2563 05e4 00000000 		.word	.LANCHOR15
 2564 05e8 00000000 		.word	.LANCHOR2
 2565 05ec 00000000 		.word	.LANCHOR16
 2566 05f0 00000000 		.word	.LANCHOR3
 2567 05f4 00000000 		.word	.LANCHOR5
 2568              	.LVL245:
 2569              	.L255:
 2570              	.LBB47:
 935:Src/main.c    ****       unsigned char position = atoi(args[2]);
 2571              		.loc 3 935 7 is_stmt 1 view .LVU752
 936:Src/main.c    ****       if (args[2][0] == 'L' || args[2][0] == 'C' || args[2][0] == 'R') {
 2572              		.loc 3 936 7 view .LVU753
 936:Src/main.c    ****       if (args[2][0] == 'L' || args[2][0] == 'C' || args[2][0] == 'R') {
 2573              		.loc 3 936 41 is_stmt 0 view .LVU754
 2574 05f8 049E     		ldr	r6, [sp, #16]
 2575              	.LVL246:
 936:Src/main.c    ****       if (args[2][0] == 'L' || args[2][0] == 'C' || args[2][0] == 'R') {
 2576              		.loc 3 936 32 view .LVU755
 2577 05fa 3046     		mov	r0, r6
 2578              	.LVL247:
 936:Src/main.c    ****       if (args[2][0] == 'L' || args[2][0] == 'C' || args[2][0] == 'R') {
 2579              		.loc 3 936 32 view .LVU756
 2580 05fc FFF7FEFF 		bl	atoi
 2581              	.LVL248:
 936:Src/main.c    ****       if (args[2][0] == 'L' || args[2][0] == 'C' || args[2][0] == 'R') {
 2582              		.loc 3 936 21 view .LVU757
 2583 0600 C1B2     		uxtb	r1, r0
 2584              	.LVL249:
 937:Src/main.c    ****         offset_mode = 0;
 2585              		.loc 3 937 7 is_stmt 1 view .LVU758
 937:Src/main.c    ****         offset_mode = 0;
 2586              		.loc 3 937 18 is_stmt 0 view .LVU759
 2587 0602 3678     		ldrb	r6, [r6]	@ zero_extendqisi2
 937:Src/main.c    ****         offset_mode = 0;
 2588              		.loc 3 937 10 view .LVU760
 2589 0604 4C2E     		cmp	r6, #76
 2590 0606 21D0     		beq	.L223
 937:Src/main.c    ****         offset_mode = 0;
 2591              		.loc 3 937 29 discriminator 1 view .LVU761
 2592 0608 432E     		cmp	r6, #67
 2593 060a 22D0     		beq	.L224
 937:Src/main.c    ****         offset_mode = 0;
 2594              		.loc 3 937 50 discriminator 2 view .LVU762
 2595 060c 522E     		cmp	r6, #82
 2596 060e 22D0     		beq	.L225
 941:Src/main.c    ****           offset_mode = 1;
 2597              		.loc 3 941 9 is_stmt 1 view .LVU763
ARM GAS  /tmp/ccDqKevX.s 			page 79


 941:Src/main.c    ****           offset_mode = 1;
 2598              		.loc 3 941 28 is_stmt 0 view .LVU764
 2599 0610 584A     		ldr	r2, .L262
 2600 0612 1278     		ldrb	r2, [r2]	@ zero_extendqisi2
 2601 0614 C2EBC202 		rsb	r2, r2, r2, lsl #3
 941:Src/main.c    ****           offset_mode = 1;
 2602              		.loc 3 941 12 view .LVU765
 2603 0618 B1EB820F 		cmp	r1, r2, lsl #2
 2604 061c 1DDB     		blt	.L226
 2605              	.LBE47:
1000:Src/main.c    **** }
 2606              		.loc 3 1000 10 view .LVU766
 2607 061e 0024     		movs	r4, #0
 2608              	.LVL250:
1000:Src/main.c    **** }
 2609              		.loc 3 1000 10 view .LVU767
 2610 0620 2DE6     		b	.L91
 2611              	.LVL251:
 2612              	.L169:
 2613              	.LBB48:
 2614              	.LBB40:
 948:Src/main.c    ****       int text_breite = generate_text((unsigned char*)args[3], textbuffer_8px_UP, 0, text_laenge, f
 2615              		.loc 3 948 45 is_stmt 1 discriminator 3 view .LVU768
 948:Src/main.c    ****       int text_breite = generate_text((unsigned char*)args[3], textbuffer_8px_UP, 0, text_laenge, f
 2616              		.loc 3 948 66 is_stmt 0 discriminator 3 view .LVU769
 2617 0622 554A     		ldr	r2, .L262+4
 2618 0624 0021     		movs	r1, #0
 2619 0626 D154     		strb	r1, [r2, r3]
 948:Src/main.c    ****       int text_breite = generate_text((unsigned char*)args[3], textbuffer_8px_UP, 0, text_laenge, f
 2620              		.loc 3 948 38 is_stmt 1 discriminator 3 view .LVU770
 948:Src/main.c    ****       int text_breite = generate_text((unsigned char*)args[3], textbuffer_8px_UP, 0, text_laenge, f
 2621              		.loc 3 948 39 is_stmt 0 discriminator 3 view .LVU771
 2622 0628 0133     		adds	r3, r3, #1
 2623              	.LVL252:
 2624              	.L168:
 948:Src/main.c    ****       int text_breite = generate_text((unsigned char*)args[3], textbuffer_8px_UP, 0, text_laenge, f
 2625              		.loc 3 948 21 is_stmt 1 discriminator 1 view .LVU772
 948:Src/main.c    ****       int text_breite = generate_text((unsigned char*)args[3], textbuffer_8px_UP, 0, text_laenge, f
 2626              		.loc 3 948 7 is_stmt 0 discriminator 1 view .LVU773
 2627 062a C72B     		cmp	r3, #199
 2628 062c F9DD     		ble	.L169
 2629              	.LBE40:
 949:Src/main.c    ****       if (!text_breite) { break; }
 2630              		.loc 3 949 7 is_stmt 1 view .LVU774
 949:Src/main.c    ****       if (!text_breite) { break; }
 2631              		.loc 3 949 25 is_stmt 0 view .LVU775
 2632 062e 5FFA88F3 		uxtb	r3, r8
 2633              	.LVL253:
 949:Src/main.c    ****       if (!text_breite) { break; }
 2634              		.loc 3 949 25 view .LVU776
 2635 0632 0093     		str	r3, [sp]
 2636 0634 2346     		mov	r3, r4
 2637 0636 0022     		movs	r2, #0
 2638 0638 4F49     		ldr	r1, .L262+4
 2639 063a 2846     		mov	r0, r5
 2640 063c FFF7FEFF 		bl	generate_text
 2641              	.LVL254:
ARM GAS  /tmp/ccDqKevX.s 			page 80


 950:Src/main.c    **** 
 2642              		.loc 3 950 7 is_stmt 1 view .LVU777
 950:Src/main.c    **** 
 2643              		.loc 3 950 10 is_stmt 0 view .LVU778
 2644 0640 0446     		mov	r4, r0
 2645              	.LVL255:
 950:Src/main.c    **** 
 2646              		.loc 3 950 10 view .LVU779
 2647 0642 0028     		cmp	r0, #0
 2648 0644 3FF41BAE 		beq	.L91
 2649              	.LBB41:
 953:Src/main.c    ****         dots[i] = dots[i] & 0xFFFF00FF;
 2650              		.loc 3 953 16 view .LVU780
 2651 0648 0023     		movs	r3, #0
 2652 064a 12E0     		b	.L170
 2653              	.LVL256:
 2654              	.L223:
 953:Src/main.c    ****         dots[i] = dots[i] & 0xFFFF00FF;
 2655              		.loc 3 953 16 view .LVU781
 2656              	.LBE41:
 938:Src/main.c    ****         position = args[2][0];
 2657              		.loc 3 938 21 view .LVU782
 2658 064c 0027     		movs	r7, #0
 2659              	.L167:
 2660              	.LVL257:
 942:Src/main.c    ****       }
 2661              		.loc 3 942 23 discriminator 1 view .LVU783
 2662 064e 0023     		movs	r3, #0
 2663 0650 EBE7     		b	.L168
 2664              	.LVL258:
 2665              	.L224:
 938:Src/main.c    ****         position = args[2][0];
 2666              		.loc 3 938 21 view .LVU784
 2667 0652 0027     		movs	r7, #0
 2668 0654 FBE7     		b	.L167
 2669              	.L225:
 2670 0656 0027     		movs	r7, #0
 2671 0658 F9E7     		b	.L167
 2672              	.L226:
 936:Src/main.c    ****       if (args[2][0] == 'L' || args[2][0] == 'C' || args[2][0] == 'R') {
 2673              		.loc 3 936 21 view .LVU785
 2674 065a 0E46     		mov	r6, r1
 942:Src/main.c    ****       }
 2675              		.loc 3 942 23 view .LVU786
 2676 065c 0127     		movs	r7, #1
 2677 065e F6E7     		b	.L167
 2678              	.LVL259:
 2679              	.L171:
 2680              	.LBB42:
 954:Src/main.c    ****       
 2681              		.loc 3 954 9 is_stmt 1 discriminator 3 view .LVU787
 954:Src/main.c    ****       
 2682              		.loc 3 954 23 is_stmt 0 discriminator 3 view .LVU788
 2683 0660 464A     		ldr	r2, .L262+8
 2684 0662 1168     		ldr	r1, [r2]
 2685 0664 51F82320 		ldr	r2, [r1, r3, lsl #2]
 954:Src/main.c    ****       
ARM GAS  /tmp/ccDqKevX.s 			page 81


 2686              		.loc 3 954 27 discriminator 3 view .LVU789
 2687 0668 22F47F42 		bic	r2, r2, #65280
 954:Src/main.c    ****       
 2688              		.loc 3 954 17 discriminator 3 view .LVU790
 2689 066c 41F82320 		str	r2, [r1, r3, lsl #2]
 953:Src/main.c    ****         dots[i] = dots[i] & 0xFFFF00FF;
 2690              		.loc 3 953 43 is_stmt 1 discriminator 3 view .LVU791
 953:Src/main.c    ****         dots[i] = dots[i] & 0xFFFF00FF;
 2691              		.loc 3 953 44 is_stmt 0 discriminator 3 view .LVU792
 2692 0670 0133     		adds	r3, r3, #1
 2693              	.LVL260:
 2694              	.L170:
 953:Src/main.c    ****         dots[i] = dots[i] & 0xFFFF00FF;
 2695              		.loc 3 953 21 is_stmt 1 discriminator 1 view .LVU793
 953:Src/main.c    ****         dots[i] = dots[i] & 0xFFFF00FF;
 2696              		.loc 3 953 27 is_stmt 0 discriminator 1 view .LVU794
 2697 0672 404A     		ldr	r2, .L262
 2698 0674 1278     		ldrb	r2, [r2]	@ zero_extendqisi2
 2699 0676 C2EBC202 		rsb	r2, r2, r2, lsl #3
 953:Src/main.c    ****         dots[i] = dots[i] & 0xFFFF00FF;
 2700              		.loc 3 953 7 discriminator 1 view .LVU795
 2701 067a B3EB820F 		cmp	r3, r2, lsl #2
 2702 067e EFDB     		blt	.L171
 2703              	.LBE42:
 957:Src/main.c    ****         for (int i=0; i<(28 * Panelanzahl); i++) {
 2704              		.loc 3 957 7 is_stmt 1 view .LVU796
 957:Src/main.c    ****         for (int i=0; i<(28 * Panelanzahl); i++) {
 2705              		.loc 3 957 11 is_stmt 0 view .LVU797
 2706 0680 3F4B     		ldr	r3, .L262+12
 2707              	.LVL261:
 957:Src/main.c    ****         for (int i=0; i<(28 * Panelanzahl); i++) {
 2708              		.loc 3 957 11 view .LVU798
 2709 0682 1B78     		ldrb	r3, [r3]	@ zero_extendqisi2
 957:Src/main.c    ****         for (int i=0; i<(28 * Panelanzahl); i++) {
 2710              		.loc 3 957 10 view .LVU799
 2711 0684 4BBB     		cbnz	r3, .L227
 2712              	.L173:
 963:Src/main.c    ****       if (text_breite < (28 * Panelanzahl)) {
 2713              		.loc 3 963 7 is_stmt 1 view .LVU800
 2714              	.LVL262:
 964:Src/main.c    ****         offset = ((Panelanzahl * 28)/2) - (text_breite/2);
 2715              		.loc 3 964 7 view .LVU801
 964:Src/main.c    ****         offset = ((Panelanzahl * 28)/2) - (text_breite/2);
 2716              		.loc 3 964 29 is_stmt 0 view .LVU802
 2717 0686 3B4B     		ldr	r3, .L262
 2718 0688 1B78     		ldrb	r3, [r3]	@ zero_extendqisi2
 2719 068a C3EBC302 		rsb	r2, r3, r3, lsl #3
 2720 068e 9000     		lsls	r0, r2, #2
 2721              	.LVL263:
 964:Src/main.c    ****         offset = ((Panelanzahl * 28)/2) - (text_breite/2);
 2722              		.loc 3 964 10 view .LVU803
 2723 0690 B4EB820F 		cmp	r4, r2, lsl #2
 2724 0694 23DA     		bge	.L228
 965:Src/main.c    ****       }
 2725              		.loc 3 965 9 is_stmt 1 view .LVU804
 965:Src/main.c    ****       }
 2726              		.loc 3 965 41 is_stmt 0 view .LVU805
ARM GAS  /tmp/ccDqKevX.s 			page 82


 2727 0696 5200     		lsls	r2, r2, #1
 2728 0698 D2B2     		uxtb	r2, r2
 965:Src/main.c    ****       }
 2729              		.loc 3 965 55 view .LVU806
 2730 069a 04EBD471 		add	r1, r4, r4, lsr #31
 2731 069e 4910     		asrs	r1, r1, #1
 2732 06a0 4942     		rsbs	r1, r1, #0
 965:Src/main.c    ****       }
 2733              		.loc 3 965 41 view .LVU807
 2734 06a2 C9B2     		uxtb	r1, r1
 965:Src/main.c    ****       }
 2735              		.loc 3 965 16 view .LVU808
 2736 06a4 0A44     		add	r2, r2, r1
 2737 06a6 D2B2     		uxtb	r2, r2
 2738              	.LVL264:
 2739              	.L175:
 967:Src/main.c    ****         text_breite = (28 * Panelanzahl);
 2740              		.loc 3 967 7 is_stmt 1 view .LVU809
 967:Src/main.c    ****         text_breite = (28 * Panelanzahl);
 2741              		.loc 3 967 10 is_stmt 0 view .LVU810
 2742 06a8 A042     		cmp	r0, r4
 2743 06aa 00DC     		bgt	.L176
 968:Src/main.c    ****       if (position == 'L') // linksbündig
 2744              		.loc 3 968 21 view .LVU811
 2745 06ac 0446     		mov	r4, r0
 2746              	.LVL265:
 2747              	.L176:
 969:Src/main.c    ****         offset = 0;
 2748              		.loc 3 969 7 is_stmt 1 view .LVU812
 969:Src/main.c    ****         offset = 0;
 2749              		.loc 3 969 10 is_stmt 0 view .LVU813
 2750 06ae 4C2E     		cmp	r6, #76
 2751 06b0 17D0     		beq	.L256
 2752              	.LVL266:
 2753              	.L177:
 971:Src/main.c    ****         if (text_breite <= (28 * Panelanzahl)) {
 2754              		.loc 3 971 7 is_stmt 1 view .LVU814
 971:Src/main.c    ****         if (text_breite <= (28 * Panelanzahl)) {
 2755              		.loc 3 971 10 is_stmt 0 view .LVU815
 2756 06b2 522E     		cmp	r6, #82
 2757 06b4 17D0     		beq	.L257
 2758              	.LVL267:
 2759              	.L178:
 976:Src/main.c    ****         offset = position;
 2760              		.loc 3 976 7 is_stmt 1 view .LVU816
 976:Src/main.c    ****         offset = position;
 2761              		.loc 3 976 10 is_stmt 0 view .LVU817
 2762 06b6 07B9     		cbnz	r7, .L179
 2763 06b8 1646     		mov	r6, r2
 2764              	.L179:
 2765              	.LVL268:
 978:Src/main.c    ****         dots[i+offset] |= (uint16_t)textbuffer_8px_UP[i] << 8;
 2766              		.loc 3 978 7 is_stmt 1 view .LVU818
 2767              	.LBB43:
 978:Src/main.c    ****         dots[i+offset] |= (uint16_t)textbuffer_8px_UP[i] << 8;
 2768              		.loc 3 978 12 view .LVU819
 978:Src/main.c    ****         dots[i+offset] |= (uint16_t)textbuffer_8px_UP[i] << 8;
ARM GAS  /tmp/ccDqKevX.s 			page 83


 2769              		.loc 3 978 16 is_stmt 0 view .LVU820
 2770 06ba 0023     		movs	r3, #0
 978:Src/main.c    ****         dots[i+offset] |= (uint16_t)textbuffer_8px_UP[i] << 8;
 2771              		.loc 3 978 7 view .LVU821
 2772 06bc 2AE0     		b	.L180
 2773              	.LVL269:
 2774              	.L174:
 978:Src/main.c    ****         dots[i+offset] |= (uint16_t)textbuffer_8px_UP[i] << 8;
 2775              		.loc 3 978 7 view .LVU822
 2776              	.LBE43:
 2777              	.LBB44:
 959:Src/main.c    ****       }
 2778              		.loc 3 959 11 is_stmt 1 discriminator 3 view .LVU823
 959:Src/main.c    ****       }
 2779              		.loc 3 959 15 is_stmt 0 discriminator 3 view .LVU824
 2780 06be 2F4B     		ldr	r3, .L262+8
 2781 06c0 1B68     		ldr	r3, [r3]
 959:Src/main.c    ****       }
 2782              		.loc 3 959 19 discriminator 3 view .LVU825
 2783 06c2 0021     		movs	r1, #0
 2784 06c4 43F82210 		str	r1, [r3, r2, lsl #2]
 958:Src/main.c    ****           dots[i] = 0; }
 2785              		.loc 3 958 45 is_stmt 1 discriminator 3 view .LVU826
 958:Src/main.c    ****           dots[i] = 0; }
 2786              		.loc 3 958 46 is_stmt 0 discriminator 3 view .LVU827
 2787 06c8 0132     		adds	r2, r2, #1
 2788              	.LVL270:
 2789              	.L172:
 958:Src/main.c    ****           dots[i] = 0; }
 2790              		.loc 3 958 23 is_stmt 1 discriminator 1 view .LVU828
 958:Src/main.c    ****           dots[i] = 0; }
 2791              		.loc 3 958 29 is_stmt 0 discriminator 1 view .LVU829
 2792 06ca 2A4B     		ldr	r3, .L262
 2793 06cc 1B78     		ldrb	r3, [r3]	@ zero_extendqisi2
 2794 06ce C3EBC303 		rsb	r3, r3, r3, lsl #3
 958:Src/main.c    ****           dots[i] = 0; }
 2795              		.loc 3 958 9 discriminator 1 view .LVU830
 2796 06d2 B2EB830F 		cmp	r2, r3, lsl #2
 2797 06d6 F2DB     		blt	.L174
 2798 06d8 D5E7     		b	.L173
 2799              	.LVL271:
 2800              	.L227:
 958:Src/main.c    ****           dots[i] = 0; }
 2801              		.loc 3 958 18 view .LVU831
 2802 06da 0022     		movs	r2, #0
 2803 06dc F5E7     		b	.L172
 2804              	.LVL272:
 2805              	.L228:
 958:Src/main.c    ****           dots[i] = 0; }
 2806              		.loc 3 958 18 view .LVU832
 2807              	.LBE44:
 963:Src/main.c    ****       if (text_breite < (28 * Panelanzahl)) {
 2808              		.loc 3 963 15 view .LVU833
 2809 06de 0022     		movs	r2, #0
 2810 06e0 E2E7     		b	.L175
 2811              	.LVL273:
 2812              	.L256:
ARM GAS  /tmp/ccDqKevX.s 			page 84


 970:Src/main.c    ****       if (position == 'R') { // rechtsbündig
 2813              		.loc 3 970 16 view .LVU834
 2814 06e2 0022     		movs	r2, #0
 2815              	.LVL274:
 970:Src/main.c    ****       if (position == 'R') { // rechtsbündig
 2816              		.loc 3 970 16 view .LVU835
 2817 06e4 E5E7     		b	.L177
 2818              	.LVL275:
 2819              	.L257:
 972:Src/main.c    ****           offset = (28 * Panelanzahl) - text_breite;
 2820              		.loc 3 972 9 is_stmt 1 view .LVU836
 972:Src/main.c    ****           offset = (28 * Panelanzahl) - text_breite;
 2821              		.loc 3 972 12 is_stmt 0 view .LVU837
 2822 06e6 A042     		cmp	r0, r4
 2823 06e8 07DB     		blt	.L231
 973:Src/main.c    ****         } else { offset = 0; }
 2824              		.loc 3 973 11 is_stmt 1 view .LVU838
 973:Src/main.c    ****         } else { offset = 0; }
 2825              		.loc 3 973 39 is_stmt 0 view .LVU839
 2826 06ea C3EBC303 		rsb	r3, r3, r3, lsl #3
 2827 06ee 9B00     		lsls	r3, r3, #2
 2828 06f0 DBB2     		uxtb	r3, r3
 2829 06f2 E2B2     		uxtb	r2, r4
 2830              	.LVL276:
 973:Src/main.c    ****         } else { offset = 0; }
 2831              		.loc 3 973 18 view .LVU840
 2832 06f4 9B1A     		subs	r3, r3, r2
 2833 06f6 DAB2     		uxtb	r2, r3
 2834              	.LVL277:
 973:Src/main.c    ****         } else { offset = 0; }
 2835              		.loc 3 973 18 view .LVU841
 2836 06f8 DDE7     		b	.L178
 2837              	.L231:
 974:Src/main.c    ****       }
 2838              		.loc 3 974 25 view .LVU842
 2839 06fa 0022     		movs	r2, #0
 2840              	.LVL278:
 974:Src/main.c    ****       }
 2841              		.loc 3 974 25 view .LVU843
 2842 06fc DBE7     		b	.L178
 2843              	.LVL279:
 2844              	.L182:
 2845              	.LBB45:
 979:Src/main.c    ****       }
 2846              		.loc 3 979 9 is_stmt 1 discriminator 4 view .LVU844
 979:Src/main.c    ****       }
 2847              		.loc 3 979 24 is_stmt 0 discriminator 4 view .LVU845
 2848 06fe 1F4A     		ldr	r2, .L262+8
 2849 0700 1068     		ldr	r0, [r2]
 979:Src/main.c    ****       }
 2850              		.loc 3 979 54 discriminator 4 view .LVU846
 2851 0702 1D4A     		ldr	r2, .L262+4
 2852 0704 D55C     		ldrb	r5, [r2, r3]	@ zero_extendqisi2
 979:Src/main.c    ****       }
 2853              		.loc 3 979 24 discriminator 4 view .LVU847
 2854 0706 50F82120 		ldr	r2, [r0, r1, lsl #2]
 2855 070a 42EA0522 		orr	r2, r2, r5, lsl #8
ARM GAS  /tmp/ccDqKevX.s 			page 85


 2856 070e 40F82120 		str	r2, [r0, r1, lsl #2]
 978:Src/main.c    ****         dots[i+offset] |= (uint16_t)textbuffer_8px_UP[i] << 8;
 2857              		.loc 3 978 65 is_stmt 1 discriminator 4 view .LVU848
 978:Src/main.c    ****         dots[i+offset] |= (uint16_t)textbuffer_8px_UP[i] << 8;
 2858              		.loc 3 978 66 is_stmt 0 discriminator 4 view .LVU849
 2859 0712 0133     		adds	r3, r3, #1
 2860              	.LVL280:
 2861              	.L180:
 978:Src/main.c    ****         dots[i+offset] |= (uint16_t)textbuffer_8px_UP[i] << 8;
 2862              		.loc 3 978 21 is_stmt 1 discriminator 1 view .LVU850
 978:Src/main.c    ****         dots[i+offset] |= (uint16_t)textbuffer_8px_UP[i] << 8;
 2863              		.loc 3 978 7 is_stmt 0 discriminator 1 view .LVU851
 2864 0714 9C42     		cmp	r4, r3
 2865 0716 07DD     		ble	.L181
 978:Src/main.c    ****         dots[i+offset] |= (uint16_t)textbuffer_8px_UP[i] << 8;
 2866              		.loc 3 978 39 discriminator 3 view .LVU852
 2867 0718 F118     		adds	r1, r6, r3
 978:Src/main.c    ****         dots[i+offset] |= (uint16_t)textbuffer_8px_UP[i] << 8;
 2868              		.loc 3 978 50 discriminator 3 view .LVU853
 2869 071a 164A     		ldr	r2, .L262
 2870 071c 1278     		ldrb	r2, [r2]	@ zero_extendqisi2
 2871 071e C2EBC202 		rsb	r2, r2, r2, lsl #3
 978:Src/main.c    ****         dots[i+offset] |= (uint16_t)textbuffer_8px_UP[i] << 8;
 2872              		.loc 3 978 35 discriminator 3 view .LVU854
 2873 0722 B1EB820F 		cmp	r1, r2, lsl #2
 2874 0726 EADB     		blt	.L182
 2875              	.L181:
 2876              	.LBE45:
 983:Src/main.c    ****         if (yellow_test_or_center) {
 2877              		.loc 3 983 7 is_stmt 1 view .LVU855
 983:Src/main.c    ****         if (yellow_test_or_center) {
 2878              		.loc 3 983 11 is_stmt 0 view .LVU856
 2879 0728 164B     		ldr	r3, .L262+16
 2880              	.LVL281:
 983:Src/main.c    ****         if (yellow_test_or_center) {
 2881              		.loc 3 983 11 view .LVU857
 2882 072a 1B78     		ldrb	r3, [r3]	@ zero_extendqisi2
 983:Src/main.c    ****         if (yellow_test_or_center) {
 2883              		.loc 3 983 10 view .LVU858
 2884 072c 2BB9     		cbnz	r3, .L183
 984:Src/main.c    ****           start_refresh = 1;
 2885              		.loc 3 984 9 is_stmt 1 view .LVU859
 984:Src/main.c    ****           start_refresh = 1;
 2886              		.loc 3 984 13 is_stmt 0 view .LVU860
 2887 072e 144B     		ldr	r3, .L262+12
 2888 0730 1B78     		ldrb	r3, [r3]	@ zero_extendqisi2
 984:Src/main.c    ****           start_refresh = 1;
 2889              		.loc 3 984 12 view .LVU861
 2890 0732 4BB1     		cbz	r3, .L184
 985:Src/main.c    ****         } else {
 2891              		.loc 3 985 11 is_stmt 1 view .LVU862
 985:Src/main.c    ****         } else {
 2892              		.loc 3 985 25 is_stmt 0 view .LVU863
 2893 0734 144B     		ldr	r3, .L262+20
 2894 0736 0122     		movs	r2, #1
 2895 0738 1A70     		strb	r2, [r3]
 2896              	.L183:
ARM GAS  /tmp/ccDqKevX.s 			page 86


 990:Src/main.c    ****       yellow_test_or_UP_DOWN = 1;
 2897              		.loc 3 990 7 is_stmt 1 view .LVU864
 990:Src/main.c    ****       yellow_test_or_UP_DOWN = 1;
 2898              		.loc 3 990 29 is_stmt 0 view .LVU865
 2899 073a 0024     		movs	r4, #0
 2900              	.LVL282:
 990:Src/main.c    ****       yellow_test_or_UP_DOWN = 1;
 2901              		.loc 3 990 29 view .LVU866
 2902 073c 104B     		ldr	r3, .L262+12
 2903 073e 1C70     		strb	r4, [r3]
 991:Src/main.c    ****       break; }
 2904              		.loc 3 991 7 is_stmt 1 view .LVU867
 991:Src/main.c    ****       break; }
 2905              		.loc 3 991 30 is_stmt 0 view .LVU868
 2906 0740 124B     		ldr	r3, .L262+24
 2907 0742 0122     		movs	r2, #1
 2908 0744 1A70     		strb	r2, [r3]
 992:Src/main.c    **** 
 2909              		.loc 3 992 7 is_stmt 1 view .LVU869
 2910 0746 9AE5     		b	.L91
 2911              	.LVL283:
 2912              	.L184:
 987:Src/main.c    ****         }
 2913              		.loc 3 987 11 view .LVU870
 987:Src/main.c    ****         }
 2914              		.loc 3 987 30 is_stmt 0 view .LVU871
 2915 0748 114B     		ldr	r3, .L262+28
 2916 074a 0122     		movs	r2, #1
 2917 074c 1A70     		strb	r2, [r3]
 2918 074e F4E7     		b	.L183
 2919              	.LVL284:
 2920              	.L185:
 987:Src/main.c    ****         }
 2921              		.loc 3 987 30 view .LVU872
 2922              	.LBE48:
 665:Src/main.c    ****   }
 2923              		.loc 3 665 12 view .LVU873
 2924 0750 4FF0FF34 		mov	r4, #-1
 2925              	.LVL285:
 665:Src/main.c    ****   }
 2926              		.loc 3 665 12 view .LVU874
 2927 0754 93E5     		b	.L91
 2928              	.LVL286:
 2929              	.L186:
 696:Src/main.c    ****   }
 2930              		.loc 3 696 12 view .LVU875
 2931 0756 4FF0FF34 		mov	r4, #-1
 2932              	.LVL287:
 696:Src/main.c    ****   }
 2933              		.loc 3 696 12 view .LVU876
 2934 075a 90E5     		b	.L91
 2935              	.LVL288:
 2936              	.L193:
 711:Src/main.c    ****   }
 2937              		.loc 3 711 12 view .LVU877
 2938 075c 4FF0FF34 		mov	r4, #-1
 2939              	.LVL289:
ARM GAS  /tmp/ccDqKevX.s 			page 87


 711:Src/main.c    ****   }
 2940              		.loc 3 711 12 view .LVU878
 2941 0760 8DE5     		b	.L91
 2942              	.LVL290:
 2943              	.L194:
 711:Src/main.c    ****   }
 2944              		.loc 3 711 12 view .LVU879
 2945 0762 4FF0FF34 		mov	r4, #-1
 2946              	.LVL291:
 711:Src/main.c    ****   }
 2947              		.loc 3 711 12 view .LVU880
 2948 0766 8AE5     		b	.L91
 2949              	.LVL292:
 2950              	.L195:
1000:Src/main.c    **** }
 2951              		.loc 3 1000 10 view .LVU881
 2952 0768 4FF0FF34 		mov	r4, #-1
 2953 076c 87E5     		b	.L91
 2954              	.LVL293:
 2955              	.L197:
1000:Src/main.c    **** }
 2956              		.loc 3 1000 10 view .LVU882
 2957 076e 0024     		movs	r4, #0
 2958 0770 85E5     		b	.L91
 2959              	.L263:
 2960 0772 00BF     		.align	2
 2961              	.L262:
 2962 0774 00000000 		.word	Panelanzahl
 2963 0778 00000000 		.word	textbuffer_8px_UP
 2964 077c 00000000 		.word	dots
 2965 0780 00000000 		.word	.LANCHOR16
 2966 0784 00000000 		.word	.LANCHOR15
 2967 0788 00000000 		.word	.LANCHOR2
 2968 078c 00000000 		.word	.LANCHOR14
 2969 0790 00000000 		.word	.LANCHOR4
 2970              		.cfi_endproc
 2971              	.LFE75:
 2973              		.section	.text.bit_not_changed,"ax",%progbits
 2974              		.align	1
 2975              		.global	bit_not_changed
 2976              		.syntax unified
 2977              		.thumb
 2978              		.thumb_func
 2979              		.fpu softvfp
 2981              	bit_not_changed:
 2982              	.LVL294:
 2983              	.LFB81:
1245:Src/main.c    **** 
1246:Src/main.c    **** 
1247:Src/main.c    **** 
1248:Src/main.c    **** //////////////////////////////////////////////////////
1249:Src/main.c    **** // Hilfsfunktionen
1250:Src/main.c    **** //////////////////////////////////////////////////////
1251:Src/main.c    **** 
1252:Src/main.c    **** // Gibt zurück, ob sich ein Bit nicht geändert hat
1253:Src/main.c    **** uint8_t bit_not_changed(uint8_t x, uint8_t y) {
 2984              		.loc 3 1253 47 is_stmt 1 view -0
ARM GAS  /tmp/ccDqKevX.s 			page 88


 2985              		.cfi_startproc
 2986              		@ args = 0, pretend = 0, frame = 0
 2987              		@ frame_needed = 0, uses_anonymous_args = 0
 2988              		@ link register save eliminated.
1254:Src/main.c    ****   uint32_t new = dots[x]     & (0x00000001 << y);
 2989              		.loc 3 1254 3 view .LVU884
 2990              		.loc 3 1254 22 is_stmt 0 view .LVU885
 2991 0000 094B     		ldr	r3, .L267
 2992 0002 1B68     		ldr	r3, [r3]
 2993 0004 53F82020 		ldr	r2, [r3, r0, lsl #2]
 2994              		.loc 3 1254 44 view .LVU886
 2995 0008 0123     		movs	r3, #1
 2996 000a 03FA01F1 		lsl	r1, r3, r1
 2997              	.LVL295:
 2998              		.loc 3 1254 12 view .LVU887
 2999 000e 0A40     		ands	r2, r2, r1
 3000              	.LVL296:
1255:Src/main.c    ****   uint32_t old = dots_old[x] & (0x00000001 << y);
 3001              		.loc 3 1255 3 is_stmt 1 view .LVU888
 3002              		.loc 3 1255 26 is_stmt 0 view .LVU889
 3003 0010 064B     		ldr	r3, .L267+4
 3004 0012 1B68     		ldr	r3, [r3]
 3005 0014 53F82030 		ldr	r3, [r3, r0, lsl #2]
 3006              		.loc 3 1255 12 view .LVU890
 3007 0018 1940     		ands	r1, r1, r3
 3008              	.LVL297:
1256:Src/main.c    ****   if (new != old) {
 3009              		.loc 3 1256 3 is_stmt 1 view .LVU891
 3010              		.loc 3 1256 6 is_stmt 0 view .LVU892
 3011 001a 8A42     		cmp	r2, r1
 3012 001c 01D0     		beq	.L266
1257:Src/main.c    ****     return 0x00; // bit changed
 3013              		.loc 3 1257 12 view .LVU893
 3014 001e 0020     		movs	r0, #0
 3015              	.LVL298:
 3016              		.loc 3 1257 12 view .LVU894
 3017 0020 7047     		bx	lr
 3018              	.LVL299:
 3019              	.L266:
1258:Src/main.c    ****   } else {
1259:Src/main.c    ****     return 0xFF; // bit not changed
 3020              		.loc 3 1259 12 view .LVU895
 3021 0022 FF20     		movs	r0, #255
 3022              	.LVL300:
1260:Src/main.c    ****   }
1261:Src/main.c    **** }
 3023              		.loc 3 1261 1 view .LVU896
 3024 0024 7047     		bx	lr
 3025              	.L268:
 3026 0026 00BF     		.align	2
 3027              	.L267:
 3028 0028 00000000 		.word	dots
 3029 002c 00000000 		.word	dots_old
 3030              		.cfi_endproc
 3031              	.LFE81:
 3033              		.section	.text.Write_Dots,"ax",%progbits
 3034              		.align	1
ARM GAS  /tmp/ccDqKevX.s 			page 89


 3035              		.global	Write_Dots
 3036              		.syntax unified
 3037              		.thumb
 3038              		.thumb_func
 3039              		.fpu softvfp
 3041              	Write_Dots:
 3042              	.LVL301:
 3043              	.LFB79:
1142:Src/main.c    **** 
 3044              		.loc 3 1142 77 is_stmt 1 view -0
 3045              		.cfi_startproc
 3046              		@ args = 0, pretend = 0, frame = 0
 3047              		@ frame_needed = 0, uses_anonymous_args = 0
1142:Src/main.c    **** 
 3048              		.loc 3 1142 77 is_stmt 0 view .LVU898
 3049 0000 2DE9F84F 		push	{r3, r4, r5, r6, r7, r8, r9, r10, fp, lr}
 3050              	.LCFI17:
 3051              		.cfi_def_cfa_offset 40
 3052              		.cfi_offset 3, -40
 3053              		.cfi_offset 4, -36
 3054              		.cfi_offset 5, -32
 3055              		.cfi_offset 6, -28
 3056              		.cfi_offset 7, -24
 3057              		.cfi_offset 8, -20
 3058              		.cfi_offset 9, -16
 3059              		.cfi_offset 10, -12
 3060              		.cfi_offset 11, -8
 3061              		.cfi_offset 14, -4
 3062 0004 0646     		mov	r6, r0
 3063 0006 8A46     		mov	r10, r1
 3064 0008 9346     		mov	fp, r2
 3065 000a 9946     		mov	r9, r3
1145:Src/main.c    **** 
 3066              		.loc 3 1145 3 is_stmt 1 view .LVU899
 3067 000c 0122     		movs	r2, #1
 3068              	.LVL302:
1145:Src/main.c    **** 
 3069              		.loc 3 1145 3 is_stmt 0 view .LVU900
 3070 000e 4FF48071 		mov	r1, #256
 3071              	.LVL303:
1145:Src/main.c    **** 
 3072              		.loc 3 1145 3 view .LVU901
 3073 0012 3948     		ldr	r0, .L287
 3074              	.LVL304:
1145:Src/main.c    **** 
 3075              		.loc 3 1145 3 view .LVU902
 3076 0014 FFF7FEFF 		bl	HAL_GPIO_WritePin
 3077              	.LVL305:
1148:Src/main.c    ****   uint8_t y_max = 0;
 3078              		.loc 3 1148 3 is_stmt 1 view .LVU903
1148:Src/main.c    ****   uint8_t y_max = 0;
 3079              		.loc 3 1148 11 is_stmt 0 view .LVU904
 3080 0018 384B     		ldr	r3, .L287+4
 3081 001a 1B78     		ldrb	r3, [r3]	@ zero_extendqisi2
 3082 001c C3EBC303 		rsb	r3, r3, r3, lsl #3
 3083 0020 9B00     		lsls	r3, r3, #2
 3084 0022 DBB2     		uxtb	r3, r3
ARM GAS  /tmp/ccDqKevX.s 			page 90


 3085              	.LVL306:
1149:Src/main.c    ****   if (Paneltyp == LAWO)  { y_max = 16; }  // Lawo
 3086              		.loc 3 1149 3 is_stmt 1 view .LVU905
1150:Src/main.c    ****   if (Paneltyp == BROSE) { y_max = 19; }  // Brose
 3087              		.loc 3 1150 3 view .LVU906
1150:Src/main.c    ****   if (Paneltyp == BROSE) { y_max = 19; }  // Brose
 3088              		.loc 3 1150 16 is_stmt 0 view .LVU907
 3089 0024 364A     		ldr	r2, .L287+8
 3090 0026 1278     		ldrb	r2, [r2]	@ zero_extendqisi2
1150:Src/main.c    ****   if (Paneltyp == BROSE) { y_max = 19; }  // Brose
 3091              		.loc 3 1150 6 view .LVU908
 3092 0028 7AB1     		cbz	r2, .L279
1149:Src/main.c    ****   if (Paneltyp == LAWO)  { y_max = 16; }  // Lawo
 3093              		.loc 3 1149 11 view .LVU909
 3094 002a 0021     		movs	r1, #0
 3095              	.L270:
 3096              	.LVL307:
1151:Src/main.c    **** 
 3097              		.loc 3 1151 3 is_stmt 1 view .LVU910
1151:Src/main.c    **** 
 3098              		.loc 3 1151 6 is_stmt 0 view .LVU911
 3099 002c 012A     		cmp	r2, #1
 3100 002e 0ED0     		beq	.L284
 3101              	.LVL308:
 3102              	.L271:
1154:Src/main.c    ****   if (from_y >= y_max || to_y >= y_max || from_y > to_y) { return; }
 3103              		.loc 3 1154 3 is_stmt 1 view .LVU912
1154:Src/main.c    ****   if (from_y >= y_max || to_y >= y_max || from_y > to_y) { return; }
 3104              		.loc 3 1154 6 is_stmt 0 view .LVU913
 3105 0030 B342     		cmp	r3, r6
 3106 0032 5ED9     		bls	.L269
1154:Src/main.c    ****   if (from_y >= y_max || to_y >= y_max || from_y > to_y) { return; }
 3107              		.loc 3 1154 23 discriminator 2 view .LVU914
 3108 0034 5345     		cmp	r3, r10
 3109 0036 5CD9     		bls	.L269
1154:Src/main.c    ****   if (from_y >= y_max || to_y >= y_max || from_y > to_y) { return; }
 3110              		.loc 3 1154 40 discriminator 4 view .LVU915
 3111 0038 5645     		cmp	r6, r10
 3112 003a 5AD8     		bhi	.L269
1155:Src/main.c    **** 
 3113              		.loc 3 1155 3 is_stmt 1 view .LVU916
1155:Src/main.c    **** 
 3114              		.loc 3 1155 6 is_stmt 0 view .LVU917
 3115 003c 5945     		cmp	r1, fp
 3116 003e 58D9     		bls	.L269
1155:Src/main.c    **** 
 3117              		.loc 3 1155 23 discriminator 2 view .LVU918
 3118 0040 4945     		cmp	r1, r9
 3119 0042 56D9     		bls	.L269
1155:Src/main.c    **** 
 3120              		.loc 3 1155 40 discriminator 4 view .LVU919
 3121 0044 CB45     		cmp	fp, r9
 3122 0046 4AD9     		bls	.L273
 3123 0048 53E0     		b	.L269
 3124              	.LVL309:
 3125              	.L279:
1150:Src/main.c    ****   if (Paneltyp == BROSE) { y_max = 19; }  // Brose
ARM GAS  /tmp/ccDqKevX.s 			page 91


 3126              		.loc 3 1150 34 view .LVU920
 3127 004a 1021     		movs	r1, #16
 3128 004c EEE7     		b	.L270
 3129              	.LVL310:
 3130              	.L284:
1151:Src/main.c    **** 
 3131              		.loc 3 1151 34 view .LVU921
 3132 004e 1321     		movs	r1, #19
 3133              	.LVL311:
1151:Src/main.c    **** 
 3134              		.loc 3 1151 34 view .LVU922
 3135 0050 EEE7     		b	.L271
 3136              	.LVL312:
 3137              	.L281:
 3138              	.LBB49:
 3139              	.LBB50:
 3140              	.LBB51:
1165:Src/main.c    **** 
 3141              		.loc 3 1165 31 view .LVU923
 3142 0052 0127     		movs	r7, #1
 3143 0054 36E0     		b	.L274
 3144              	.LVL313:
 3145              	.L275:
1176:Src/main.c    ****         Zeile_aktivieren(Zeile, dot);
 3146              		.loc 3 1176 9 is_stmt 1 view .LVU924
 3147 0056 B408     		lsrs	r4, r6, #2
 3148 0058 2A48     		ldr	r0, .L287+12
 3149 005a A0FB0434 		umull	r3, r4, r0, r4
 3150 005e 5FFA84F8 		uxtb	r8, r4
 3151 0062 A4EBC404 		sub	r4, r4, r4, lsl #3
 3152 0066 06EB8400 		add	r0, r6, r4, lsl #2
 3153 006a 87F00101 		eor	r1, r7, #1
 3154 006e C0B2     		uxtb	r0, r0
 3155 0070 FFF7FEFF 		bl	Spalte_aktivieren
 3156              	.LVL314:
1177:Src/main.c    **** 
 3157              		.loc 3 1177 9 view .LVU925
 3158 0074 3946     		mov	r1, r7
 3159 0076 2846     		mov	r0, r5
 3160 0078 FFF7FEFF 		bl	Zeile_aktivieren
 3161              	.LVL315:
1180:Src/main.c    ****         HAL_GPIO_WritePin(Zeilen_OE_GPIO_Port, Zeilen_OE_Pin, 1);
 3162              		.loc 3 1180 9 view .LVU926
 3163 007c 0121     		movs	r1, #1
 3164 007e 4046     		mov	r0, r8
 3165 0080 FFF7FEFF 		bl	Modul_aktivieren
 3166              	.LVL316:
1181:Src/main.c    **** 
 3167              		.loc 3 1181 9 view .LVU927
 3168 0084 204C     		ldr	r4, .L287+16
 3169 0086 0122     		movs	r2, #1
 3170 0088 1021     		movs	r1, #16
 3171 008a 2046     		mov	r0, r4
 3172 008c FFF7FEFF 		bl	HAL_GPIO_WritePin
 3173              	.LVL317:
1184:Src/main.c    **** 
 3174              		.loc 3 1184 9 view .LVU928
ARM GAS  /tmp/ccDqKevX.s 			page 92


 3175 0090 4FF47A70 		mov	r0, #1000
 3176 0094 FFF7FEFF 		bl	delay_us
 3177              	.LVL318:
1187:Src/main.c    ****         Modul_aktivieren(Spalte/28, 0);
 3178              		.loc 3 1187 9 view .LVU929
 3179 0098 0122     		movs	r2, #1
 3180 009a 1021     		movs	r1, #16
 3181 009c 2046     		mov	r0, r4
 3182 009e FFF7FEFF 		bl	HAL_GPIO_WritePin
 3183              	.LVL319:
1188:Src/main.c    ****       }
 3184              		.loc 3 1188 9 view .LVU930
 3185 00a2 0021     		movs	r1, #0
 3186 00a4 4046     		mov	r0, r8
 3187 00a6 FFF7FEFF 		bl	Modul_aktivieren
 3188              	.LVL320:
 3189              	.L276:
 3190              	.LBE51:
1159:Src/main.c    **** 
 3191              		.loc 3 1159 49 discriminator 2 view .LVU931
1159:Src/main.c    **** 
 3192              		.loc 3 1159 54 is_stmt 0 discriminator 2 view .LVU932
 3193 00aa 0135     		adds	r5, r5, #1
 3194              	.LVL321:
1159:Src/main.c    **** 
 3195              		.loc 3 1159 54 discriminator 2 view .LVU933
 3196 00ac EDB2     		uxtb	r5, r5
 3197              	.LVL322:
 3198              	.L278:
1159:Src/main.c    **** 
 3199              		.loc 3 1159 34 is_stmt 1 discriminator 1 view .LVU934
1159:Src/main.c    **** 
 3200              		.loc 3 1159 5 is_stmt 0 discriminator 1 view .LVU935
 3201 00ae 4D45     		cmp	r5, r9
 3202 00b0 13D8     		bhi	.L285
 3203              	.LBB52:
1162:Src/main.c    ****       uint8_t dot = 0;
 3204              		.loc 3 1162 7 is_stmt 1 view .LVU936
 3205              	.LVL323:
1163:Src/main.c    ****       uint32_t current_data = dots[Spalte] & (0x00000001 << Zeile);
 3206              		.loc 3 1163 7 view .LVU937
1164:Src/main.c    ****       if (current_data) { dot = 1; }
 3207              		.loc 3 1164 7 view .LVU938
1164:Src/main.c    ****       if (current_data) { dot = 1; }
 3208              		.loc 3 1164 35 is_stmt 0 view .LVU939
 3209 00b2 164B     		ldr	r3, .L287+20
 3210 00b4 1B68     		ldr	r3, [r3]
 3211 00b6 53F82620 		ldr	r2, [r3, r6, lsl #2]
1164:Src/main.c    ****       if (current_data) { dot = 1; }
 3212              		.loc 3 1164 58 view .LVU940
 3213 00ba 0123     		movs	r3, #1
 3214 00bc AB40     		lsls	r3, r3, r5
 3215              	.LVL324:
1165:Src/main.c    **** 
 3216              		.loc 3 1165 7 is_stmt 1 view .LVU941
1165:Src/main.c    **** 
 3217              		.loc 3 1165 10 is_stmt 0 view .LVU942
ARM GAS  /tmp/ccDqKevX.s 			page 93


 3218 00be 1A42     		tst	r2, r3
 3219 00c0 C7D1     		bne	.L281
1163:Src/main.c    ****       uint32_t current_data = dots[Spalte] & (0x00000001 << Zeile);
 3220              		.loc 3 1163 15 view .LVU943
 3221 00c2 0027     		movs	r7, #0
 3222              	.L274:
 3223              	.LVL325:
1168:Src/main.c    ****         skip |= bit_not_changed(Spalte, Zeile);
 3224              		.loc 3 1168 7 is_stmt 1 view .LVU944
1168:Src/main.c    ****         skip |= bit_not_changed(Spalte, Zeile);
 3225              		.loc 3 1168 11 is_stmt 0 view .LVU945
 3226 00c4 124B     		ldr	r3, .L287+24
 3227              	.LVL326:
1168:Src/main.c    ****         skip |= bit_not_changed(Spalte, Zeile);
 3228              		.loc 3 1168 11 view .LVU946
 3229 00c6 1B78     		ldrb	r3, [r3]	@ zero_extendqisi2
1168:Src/main.c    ****         skip |= bit_not_changed(Spalte, Zeile);
 3230              		.loc 3 1168 10 view .LVU947
 3231 00c8 002B     		cmp	r3, #0
 3232 00ca C4D0     		beq	.L275
1169:Src/main.c    ****       }
 3233              		.loc 3 1169 9 is_stmt 1 view .LVU948
1169:Src/main.c    ****       }
 3234              		.loc 3 1169 17 is_stmt 0 view .LVU949
 3235 00cc 2946     		mov	r1, r5
 3236 00ce 3046     		mov	r0, r6
 3237 00d0 FFF7FEFF 		bl	bit_not_changed
 3238              	.LVL327:
1173:Src/main.c    **** 
 3239              		.loc 3 1173 7 is_stmt 1 view .LVU950
1173:Src/main.c    **** 
 3240              		.loc 3 1173 10 is_stmt 0 view .LVU951
 3241 00d4 0028     		cmp	r0, #0
 3242 00d6 E8D1     		bne	.L276
 3243 00d8 BDE7     		b	.L275
 3244              	.LVL328:
 3245              	.L285:
1173:Src/main.c    **** 
 3246              		.loc 3 1173 10 view .LVU952
 3247              	.LBE52:
 3248              	.LBE50:
1158:Src/main.c    ****     for (uint8_t Zeile = from_y; Zeile <= to_y; Zeile++) {
 3249              		.loc 3 1158 49 is_stmt 1 discriminator 2 view .LVU953
1158:Src/main.c    ****     for (uint8_t Zeile = from_y; Zeile <= to_y; Zeile++) {
 3250              		.loc 3 1158 55 is_stmt 0 discriminator 2 view .LVU954
 3251 00da 0136     		adds	r6, r6, #1
 3252              	.LVL329:
1158:Src/main.c    ****     for (uint8_t Zeile = from_y; Zeile <= to_y; Zeile++) {
 3253              		.loc 3 1158 55 discriminator 2 view .LVU955
 3254 00dc F6B2     		uxtb	r6, r6
 3255              	.LVL330:
 3256              	.L273:
1158:Src/main.c    ****     for (uint8_t Zeile = from_y; Zeile <= to_y; Zeile++) {
 3257              		.loc 3 1158 33 is_stmt 1 discriminator 1 view .LVU956
1158:Src/main.c    ****     for (uint8_t Zeile = from_y; Zeile <= to_y; Zeile++) {
 3258              		.loc 3 1158 3 is_stmt 0 discriminator 1 view .LVU957
 3259 00de 5645     		cmp	r6, r10
ARM GAS  /tmp/ccDqKevX.s 			page 94


 3260 00e0 01D8     		bhi	.L286
 3261              	.LBB53:
1159:Src/main.c    **** 
 3262              		.loc 3 1159 18 view .LVU958
 3263 00e2 5D46     		mov	r5, fp
 3264 00e4 E3E7     		b	.L278
 3265              	.L286:
 3266              	.LBE53:
 3267              	.LBE49:
1194:Src/main.c    **** }
 3268              		.loc 3 1194 3 is_stmt 1 view .LVU959
 3269 00e6 0022     		movs	r2, #0
 3270 00e8 4FF48071 		mov	r1, #256
 3271 00ec 0248     		ldr	r0, .L287
 3272 00ee FFF7FEFF 		bl	HAL_GPIO_WritePin
 3273              	.LVL331:
 3274              	.L269:
1195:Src/main.c    **** 
 3275              		.loc 3 1195 1 is_stmt 0 view .LVU960
 3276 00f2 BDE8F88F 		pop	{r3, r4, r5, r6, r7, r8, r9, r10, fp, pc}
 3277              	.L288:
 3278 00f6 00BF     		.align	2
 3279              	.L287:
 3280 00f8 000C0140 		.word	1073810432
 3281 00fc 00000000 		.word	Panelanzahl
 3282 0100 00000000 		.word	Paneltyp
 3283 0104 25499224 		.word	613566757
 3284 0108 00080140 		.word	1073809408
 3285 010c 00000000 		.word	dots
 3286 0110 00000000 		.word	.LANCHOR17
 3287              		.cfi_endproc
 3288              	.LFE79:
 3290              		.section	.text.save_written_dots,"ax",%progbits
 3291              		.align	1
 3292              		.global	save_written_dots
 3293              		.syntax unified
 3294              		.thumb
 3295              		.thumb_func
 3296              		.fpu softvfp
 3298              	save_written_dots:
 3299              	.LFB82:
1262:Src/main.c    **** 
1263:Src/main.c    **** // Speichert ein Backup vom Pixelbuffer 
1264:Src/main.c    **** void save_written_dots(void) {
 3300              		.loc 3 1264 30 is_stmt 1 view -0
 3301              		.cfi_startproc
 3302              		@ args = 0, pretend = 0, frame = 0
 3303              		@ frame_needed = 0, uses_anonymous_args = 0
 3304              		@ link register save eliminated.
1265:Src/main.c    ****   if (enable_fast_refresh) {
 3305              		.loc 3 1265 3 view .LVU962
 3306              		.loc 3 1265 7 is_stmt 0 view .LVU963
 3307 0000 0B4B     		ldr	r3, .L295
 3308 0002 1B78     		ldrb	r3, [r3]	@ zero_extendqisi2
 3309              		.loc 3 1265 6 view .LVU964
